
 KBDUS

 Start     Length     Name                   Class
 0001:0000 002F6H     _TEXT                  CODE
 0002:0000 000A0H     _DATA                  DATA

 Origin   Group
 0002:0   DGROUP

 Address   Export                  Alias

 0001:0091 GetKbdTable             GetKbdTable
 0001:012F WEP                     WEP

  Address         Publics by Name

 0002:0085       ASCCTLALT
 0002:0084       ASCCTLALTVK
 0001:01B0       ASCIITAB
 0002:0093       ASCSHCTLALT
 0002:0086       ASCSHCTLALTVK
 0001:01BE       BEGPATCHES
 0002:00A0       CAPITALTABLE
 0001:0054       COPYRIGHT
 0002:0000       COUNTRYNAME
 0001:003F       DATE
 0001:018F       FKEYTYPE
 0001:0091       GetKbdTable
 0001:018E       HEADERBEG
 0001:01BE       HEADEREND
 0002:006C       MORTO
 0002:006C       MORTOCODE
 0001:0132       NINDICES
 0001:0145       PATCH102
 0001:02A6       PATCHACTLALT
 0001:029E       PATCHACTLALTVK
 0001:0276       PATCHACTRL
 0001:026E       PATCHACTRLVK
 0001:02BE       PATCHASHCTLALT
 0001:02B6       PATCHASHCTLALTVK
 0001:01FE       PATCHATRAN
 0002:0034       PATCHATRAN4
 0001:02EE       PATCHCAPITAL
 0001:0134       PATCHINDICES
 0001:02DE       PATCHMORTOCODE
 0001:02CE       PATCHMORTOVK
 0001:01AE       PCAPITAL
 0001:01BA       PDEADCHAR
 0001:01AA       PDEADKEYCODE
 0001:01A8       PMORTO
 0001:01B8       PMORTOCODE
 0001:01AC       PSGCAPSVK
 0001:01BC       PSGTRANS
 0001:0192       SZASCCONTROL
 0001:0194       SZASCCTLALT
 0001:0196       SZASCSHCTLALT
 0001:0190       SZASCTRAN
 0001:019C       SZCAPITAL
 0001:019E       SZDEADKEY
 0001:018C       SZHEADER
 0001:0198       SZMORTO
 0001:0296       SZPATCHACTLALT
 0001:0266       SZPATCHACTRL
 0001:02AE       SZPATCHASHCTLALT
 0001:01F6       SZPATCHATRAN
 0001:02E6       SZPATCHCAPITAL
 0001:02D6       SZPATCHMORTOCODE
 0001:02C6       SZPATCHMORTOVK
 0001:019A       SZSGCAPS
 0001:018E       TABLETYPE
 0001:0148       TRANSPATCHES
 0002:007D       VARASCCTRL
 0002:0071       VARASCCTRLVK
 0001:01A0       VIRTADR
 0001:012F       WEP
 0001:013E       X1
 0001:013F       X2
 0000:0000  Imp  __ROMBIOS            (KERNEL.173)

  Address         Publics by Value

 0000:0000  Imp  __ROMBIOS            (KERNEL.173)
 0001:003F       DATE
 0001:0054       COPYRIGHT
 0001:0091       GetKbdTable
 0001:012F       WEP
 0001:0132       NINDICES
 0001:0134       PATCHINDICES
 0001:013E       X1
 0001:013F       X2
 0001:0145       PATCH102
 0001:0148       TRANSPATCHES
 0001:018C       SZHEADER
 0001:018E       TABLETYPE
 0001:018E       HEADERBEG
 0001:018F       FKEYTYPE
 0001:0190       SZASCTRAN
 0001:0192       SZASCCONTROL
 0001:0194       SZASCCTLALT
 0001:0196       SZASCSHCTLALT
 0001:0198       SZMORTO
 0001:019A       SZSGCAPS
 0001:019C       SZCAPITAL
 0001:019E       SZDEADKEY
 0001:01A0       VIRTADR
 0001:01A8       PMORTO
 0001:01AA       PDEADKEYCODE
 0001:01AC       PSGCAPSVK
 0001:01AE       PCAPITAL
 0001:01B0       ASCIITAB
 0001:01B8       PMORTOCODE
 0001:01BA       PDEADCHAR
 0001:01BC       PSGTRANS
 0001:01BE       BEGPATCHES
 0001:01BE       HEADEREND
 0001:01F6       SZPATCHATRAN
 0001:01FE       PATCHATRAN
 0001:0266       SZPATCHACTRL
 0001:026E       PATCHACTRLVK
 0001:0276       PATCHACTRL
 0001:0296       SZPATCHACTLALT
 0001:029E       PATCHACTLALTVK
 0001:02A6       PATCHACTLALT
 0001:02AE       SZPATCHASHCTLALT
 0001:02B6       PATCHASHCTLALTVK
 0001:02BE       PATCHASHCTLALT
 0001:02C6       SZPATCHMORTOVK
 0001:02CE       PATCHMORTOVK
 0001:02D6       SZPATCHMORTOCODE
 0001:02DE       PATCHMORTOCODE
 0001:02E6       SZPATCHCAPITAL
 0001:02EE       PATCHCAPITAL
 0002:0000       COUNTRYNAME
 0002:0034       PATCHATRAN4
 0002:006C       MORTOCODE
 0002:006C       MORTO
 0002:0071       VARASCCTRLVK
 0002:007D       VARASCCTRL
 0002:0084       ASCCTLALTVK
 0002:0085       ASCCTLALT
 0002:0086       ASCSHCTLALTVK
 0002:0093       ASCSHCTLALT
 0002:00A0       CAPITALTABLE
