
 VDDVGA

 Start         Length     Name                   Class
 0001:00000000 00000604BH _LTEXT                 CODE 32-bit
 0001:0000604C 0000045D0H _LDATA                 CODE 32-bit
 0002:00000000 00000057CH _ITEXT                 ICODE 32-bit
 0002:0000057C 000000224H _IDATA                 ICODE 32-bit
 0003:00000000 000000000H _TEXT                  PCODE 32-bit
 0003:00000000 000000000H _DATA                  PCODE 32-bit
 0003:00000000 000000190H _RCODE                 RCODE 16-bit

 Origin   Group
 0002:0   _IGROUP
 0001:0   _LGROUP
 0003:0   _PGROUP
 0000:0   FLAT

 Address       Export                  Alias

 0001:00006084 VDD_DDB                 VDD_DDB

  Address         Publics by Name

 0001:00006080       $VDD_Check_Update_Soon
 0001:00006054       $VDD_Get_GrabRtn
 0001:00006060       $VDD_Get_ModTime
 0001:0000604C       $VDD_Get_Version
 0001:00006058       $VDD_Hide_Cursor
 0001:00006070       $VDD_Msg_BakColor
 0001:00006068       $VDD_Msg_ClrScrn
 0001:0000606C       $VDD_Msg_ForColor
 0001:00006078       $VDD_Msg_SetCursPos
 0001:00006074       $VDD_Msg_TextOut
 0001:00006050       $VDD_PIF_State
 0001:0000607C       $VDD_Query_Access
 0001:00006064       $VDD_Set_HCurTrk
 0001:0000605C       $VDD_Set_VMType
 0001:000052B7       @VDD_Get_GrabRtn
 0001:0000542F       @VDD_Get_ModTime
 0001:00004D6A       @VDD_Get_Version
 0001:000052D7       @VDD_Hide_Cursor
 0001:00005035       @VDD_Msg_BakColor
 0001:00004E7A       @VDD_Msg_ClrScrn
 0001:00004FB6       @VDD_Msg_ForColor
 0001:000051C4       @VDD_Msg_SetCursPos
 0001:000050B7       @VDD_Msg_TextOut
 0001:00005260       @VDD_PIF_State
 0001:00005348       @VDD_Query_Access
 0001:00005291       @VDD_Set_HCurTrk
 0001:000053BA       @VDD_Set_VMType
 0001:00001BF6       @VDD_VMIdle
 0001:0000269E       ConvertToScroll
 0001:000026FB       FoundScrollRect
 0001:00005DAF       james0
 0001:00005EE3       james1
 0000:00000040  Abs  Seq_Rtn_Off
 0001:00002385       Setup_Start_Count
 0001:00005EF6       V7_ExtRegs_PreSR
 0001:00005CD4       V7_RestCRTC
 0001:00005DDB       V7_RestCTLR
 0001:00005F99       V7_SaveExtRegs
 0001:00009BA7       VDD_2EGA_Start
 0002:00000793       VDD_2nd_Ini
 0001:00001282       VDD_Adj_Msk
 0001:00001D24       VDD_Attach2
 0001:0000378D       VDD_Backgrnd_Event
 0001:00004D96       VDD_Begin_Msg_Mode
 0001:000038E3       VDD_Cancel_Restore
 0001:00003B00       VDD_Cancel_Restore2
 0001:00006F60       VDD_CB_Off
 0001:00000967       VDD_CheckMmgrCallOK
 0001:000056B8       VDD_Clear_Mod
 0001:00004133       VDD_Clear_RAM
 0001:00001CA8       VDD_Clr_VM_Time_Out
 0001:00000000       VDD_Control
 0001:00003CF3       VDD_CopyTextPages
 0001:00006084       VDD_DDB
 0001:000004B9       VDD_DebugQuery
 0001:00001CC5       VDD_Detach
 0001:00001D64       VDD_Detach2
 0002:00000305       VDD_Device_Init
 0001:000038C7       VDD_Dont_Restore
 0001:000038B2       VDD_Do_Restore
 0001:00004DE4       VDD_End_Msg_Mode
 0001:00003A3B       VDD_FGrnd_Notify
 0001:000060BC       VDD_Focus_VM
 0001:00005808       VDD_Free_Grab
 0001:0000581B       VDD_Free_Mem
 0001:000029E1       VDD_Get_EGA_Posn
 0001:0000576E       VDD_Get_GrbMem
 0001:00005533       VDD_Get_GrbState
 0001:00004D7E       VDD_Get_GrbVersion
 0001:00005712       VDD_Get_Mem
 0001:000055BE       VDD_Get_Mod
 0001:0000290A       VDD_Get_Mode
 0001:0000553E       VDD_Get_State
 0001:00004778       VDD_Global_Restore
 0001:00003BD8       VDD_Grab
 0001:00003C99       VDD_GrabTextMode
 0001:00009C4B       VDD_Grb_MskTab
 0001:000054E8       VDD_Grb_Version
 0001:00003539       VDD_I10_Mode_Switch
 0001:0000361C       VDD_I10_Mode_Sw_Done
 0001:00006F6C       VDD_I10_OldVector
 0001:00006F74       VDD_I2F_Next_CS
 0001:00006F78       VDD_I2F_Next_EIP
 0001:00006F68       VDD_Initial_Text_Rows
 0001:00005960       VDD_Init_DAC
 0001:00003360       VDD_Int_10
 0001:000036B3       VDD_Int_2F
 0002:00000564       VDD_IO_Init
 0001:00002A08       VDD_IO_SetTrap
 0002:000005F0       VDD_IO_Table
 0001:00009B9F       VDD_Latch_Addr
 0001:00000C14       VDD_Mem_ACopy
 0001:00000982       VDD_Mem_AMain
 0001:00001730       VDD_Mem_CalcPage
 0001:000012E9       VDD_Mem_Chg
 0001:000012A6       VDD_Mem_ChkPag
 0001:00000D6F       VDD_Mem_DCopy
 0001:00000DB1       VDD_Mem_Disable
 0001:00000D00       VDD_Mem_DMain
 0001:0000183A       VDD_Mem_I10Done
 0001:00006724       VDD_Mem_Ini_Tab
 0001:00006774       VDD_Mem_Ini_Tab2
 0001:00001104       VDD_Mem_MakeCopy
 0001:0000170D       VDD_Mem_MapNull
 0001:00001232       VDD_Mem_ModPag
 0001:000017A2       VDD_Mem_Null
 0001:00000E53       VDD_Mem_Physical
 0001:00000F08       VDD_Mem_Physical2
 0001:00001502       VDD_Mem_Remap
 0001:0000142F       VDD_Mem_Test_256k
 0001:0000107A       VDD_Mem_Update
 0001:000011A5       VDD_Mem_UpdOff
 0001:0000145E       VDD_Mem_Valid
 0001:000007CC       VDD_Mem_VMCreate
 0001:00000955       VDD_Mem_VMDestroy
 0001:0000083C       VDD_Mem_VMInit
 0001:000008A9       VDD_Mem_VMSetTyp
 0001:00005894       VDD_Message
 0001:00006BD4       VDD_Mod_MskTab
 0001:00006C24       VDD_Mod_MskTab2
 0001:00002307       VDD_Mod_Text
 0001:00001696       VDD_MR_MapIt
 0001:000043B0       VDD_MsgRestFontAndClear
 0001:00004402       VDD_MsgSaveFont
 0001:00005943       VDD_Msg_CannotGrab
 0001:000058C3       VDD_Msg_Exclusive
 0001:00004F15       VDD_Msg_InitScreen
 0001:00005927       VDD_Msg_NoCopyMem
 0001:000058F3       VDD_Msg_NoFGrnd
 0001:0000590B       VDD_Msg_NoMainMem
 0001:000058DB       VDD_Msg_NoSupMode
 0001:000058AB       VDD_Msg_NotWindow
 0001:0000748C       VDD_Msg_Pseudo_CB
 0001:00007488       VDD_Msg_Pseudo_VM
 0001:0000A0BC       VDD_Msg_VM
 0001:0000460F       VDD_OutC_Ctrlr
 0001:00001950       VDD_PFault
 0001:00009BA3       VDD_Phys2EGA
 0001:00009B9B       VDD_PhysA0000
 0001:0000546D       VDD_PM_API
 0001:0000368C       VDD_PM_Int_2F
 0001:000047C9       VDD_Pre_SR
 0001:00006634       VDD_PT_Buff
 0001:00000B54       VDD_ReSet_VPH
 0001:00009B97       VDD_Rest2_Event_Handle
 0001:0000443B       VDD_RestCRTC
 0001:00004B21       VDD_RestCtlr
 0001:0000469A       VDD_RestIndx
 0001:00004990       VDD_RestMsgStt
 0001:0000380C       VDD_Restore
 0001:00003AD9       VDD_Restore2
 0001:00003B17       VDD_Restore2_Event
 0001:00003900       VDD_Restore_Event
 0001:00004A88       VDD_Restore_Latches
 0001:000041A3       VDD_Restore_RAM
 0001:00005C65       VDD_Rest_DAC
 0001:00009B93       VDD_Rest_Event_Handle
 0001:00000256       VDD_Resume
 0001:00000455       VDD_Resume_Bkgnd_VMs
 0001:00003730       VDD_Save
 0001:00003A7F       VDD_Save2
 0001:00005996       VDD_SaveCtlr
 0001:00004943       VDD_SaveMsgStt
 0001:00004D4C       VDD_SaveRegs
 0001:00004D44       VDD_SaveRegs_Event
 0001:000049D0       VDD_Save_Latches
 0001:00003F6F       VDD_Save_RAM
 0001:0000A0C0       VDD_Scrn_Attr
 0001:0000462C       VDD_Scrn_Off
 0001:00002841       VDD_Scrn_Size
 0001:000008F3       VDD_SetCopyMask
 0001:00006B10       VDD_SetTime_Chain
 0001:000002E9       VDD_SetupInitialVideoState
 0001:00001C70       VDD_Set_VM_Time_Out
 0001:00000BAD       VDD_Set_VPH
 0001:00006D6C       VDD_SG0_JTab
 0001:00006DEC       VDD_SG2_JTab
 0001:00006E6C       VDD_SGx_JTab
 0001:00003E05       VDD_SRAM
 0001:00003D7C       VDD_SR_Setup
 0001:00002060       VDD_State_CtlrChgs
 0001:00001F26       VDD_State_GetStt
 0001:00002146       VDD_State_MemChgs
 0001:0000227A       VDD_State_Query
 0001:0000278F       VDD_State_Update
 0001:00001E94       VDD_State_VMCreate
 0002:00000722       VDD_Str_BadDevice
 0002:000006C4       VDD_Str_CheckVidPgs
 0001:00006F70       VDD_Stub_I10_Vector
 0001:000001A7       VDD_Suspend
 0001:0000573A       VDD_Suspend_NormSch
 0001:0000587E       VDD_SysModalMsg
 0001:000002CE       VDD_System_Exit
 0001:00000409       VDD_Sys_Critical_Exit
 0002:00000000       VDD_Sys_Critical_Init
 0002:00000779       VDD_Text_Rows_Ini
 0002:00000785       VDD_Text_Rows_Sect
 0002:00000768       VDD_Time_Ini
 0001:00005830       VDD_Unlock_APP
 0001:00000F45       VDD_Unmapped
 0001:00001C5C       VDD_Update_Window
 0001:00005A6F       VDD_VGA_SaveAttr
 0001:00005B20       VDD_VGA_SaveCRTC
 0001:00005C32       VDD_VGA_SaveDAC
 0001:00005B61       VDD_VGA_SaveGrp
 0001:00005B00       VDD_VGA_SaveMisc
 0001:00005BF6       VDD_VGA_SaveSeq
 0001:0000006E       VDD_VMCreate
 0001:00001E2F       VDD_VMDA_Grab
 0001:00001DB2       VDD_VMDA_Update
 0001:00000141       VDD_VMDestroy
 0001:00006B0C       VDD_VMIdle_Chain
 0001:000000B4       VDD_VMInit
 0001:000000E0       VDD_VMSetFocus
 0001:00001C3C       VDD_VMTimeOut
 0001:0000042A       VDD_VM_Critical_Init
 0001:00006F64       VDD_Win_Update_Time
 0001:0000577E       VGMm_Set_Struc
 0001:000027EF       Vid_Chk_Cursor
 0001:00006F5C       Vid_Flags
 0001:00001E89       Vid_Grab_CallBack
 0001:00001E0C       Vid_Upd_CallBack
 0001:00006F50       Vid_VM_Handle
 0001:00006F54       Vid_VM_Handle2
 0001:00006F58       Vid_VM_HandleRun
 0001:00002B00       VIOT_3C0
 0001:00002B30       VIOT_3C1
 0001:00002BA0       VIOT_3C2
 0001:00002BE4       VIOT_3C4
 0001:00002C24       VIOT_3C5
 0001:00002DA0       VIOT_3C6
 0001:00002DCC       VIOT_3C7
 0001:00002E28       VIOT_3C8
 0001:00002E8C       VIOT_3C9
 0001:00002F30       VIOT_3CA
 0001:00002F5C       VIOT_3CC
 0001:00002F94       VIOT_3CE
 0001:00002FD4       VIOT_3CF
 0001:00003058       VIOT_3D4
 0001:00003098       VIOT_3D5
 0001:00003118       VIOT_3DA
 0001:00003198       VIOT_3DB
 0001:000031C4       VIOT_3DC
 0001:00002AE0       VIOT_Ignore
 0001:00002AD8       VIOT_In_Undef
 0001:0000742E       VMB_Str_CannotGrab
 0001:000070E0       VMB_Str_Exclusive
 0001:0000700E       VMB_Str_NoCopyMem
 0001:0000732A       VMB_Str_NoFGrnd
 0001:00006F7C       VMB_Str_NoMainMem
 0001:0000726D       VMB_Str_NoSupMode
 0001:000071B1       VMB_Str_NotWindow
 0001:0000254C       VMTC_CheckRect
 0001:000024CD       VMTC_CombineRect
 0001:000024F9       VMTC_CombineThree
 0001:0000261B       VMT_Check_Scroll
 0001:000023BD       VMT_Comp
 0001:000032F8       VOT_2G_DoIt
 0001:0000330C       VOT_2G_Misc
 0001:00003338       VOT_2G_Mode
 0001:000032BC       VOT_2S_Mask
 0001:000032D0       VOT_2S_MMode
 0001:00003234       VOT_VG_Fin
 0001:00003254       VOT_VG_Func
 0001:00003268       VOT_VG_Mask
 0001:0000329C       VOT_VG_Misc
 0001:0000327C       VOT_VG_Mode
 0001:00003290       VOT_VG_MSlct
 0001:00003240       VOT_VG_SREna
 0001:000031F0       VOT_VS_Fin
 0001:000031FC       VOT_VS_Mask
 0001:00003208       VOT_VS_MMode
 0001:00001B35       VPF_SuspendNow_Event
 0001:00001BBA       VPF_Susp_Event
 0001:00001E5B       VV_Grab_Event
 0001:00001DDE       VV_Update_Event

  Address         Publics by Value

 0000:00000040  Abs  Seq_Rtn_Off
 0001:00000000       VDD_Control
 0001:0000006E       VDD_VMCreate
 0001:000000B4       VDD_VMInit
 0001:000000E0       VDD_VMSetFocus
 0001:00000141       VDD_VMDestroy
 0001:000001A7       VDD_Suspend
 0001:00000256       VDD_Resume
 0001:000002CE       VDD_System_Exit
 0001:000002E9       VDD_SetupInitialVideoState
 0001:00000409       VDD_Sys_Critical_Exit
 0001:0000042A       VDD_VM_Critical_Init
 0001:00000455       VDD_Resume_Bkgnd_VMs
 0001:000004B9       VDD_DebugQuery
 0001:000007CC       VDD_Mem_VMCreate
 0001:0000083C       VDD_Mem_VMInit
 0001:000008A9       VDD_Mem_VMSetTyp
 0001:000008F3       VDD_SetCopyMask
 0001:00000955       VDD_Mem_VMDestroy
 0001:00000967       VDD_CheckMmgrCallOK
 0001:00000982       VDD_Mem_AMain
 0001:00000B54       VDD_ReSet_VPH
 0001:00000BAD       VDD_Set_VPH
 0001:00000C14       VDD_Mem_ACopy
 0001:00000D00       VDD_Mem_DMain
 0001:00000D6F       VDD_Mem_DCopy
 0001:00000DB1       VDD_Mem_Disable
 0001:00000E53       VDD_Mem_Physical
 0001:00000F08       VDD_Mem_Physical2
 0001:00000F45       VDD_Unmapped
 0001:0000107A       VDD_Mem_Update
 0001:00001104       VDD_Mem_MakeCopy
 0001:000011A5       VDD_Mem_UpdOff
 0001:00001232       VDD_Mem_ModPag
 0001:00001282       VDD_Adj_Msk
 0001:000012A6       VDD_Mem_ChkPag
 0001:000012E9       VDD_Mem_Chg
 0001:0000142F       VDD_Mem_Test_256k
 0001:0000145E       VDD_Mem_Valid
 0001:00001502       VDD_Mem_Remap
 0001:00001696       VDD_MR_MapIt
 0001:0000170D       VDD_Mem_MapNull
 0001:00001730       VDD_Mem_CalcPage
 0001:000017A2       VDD_Mem_Null
 0001:0000183A       VDD_Mem_I10Done
 0001:00001950       VDD_PFault
 0001:00001B35       VPF_SuspendNow_Event
 0001:00001BBA       VPF_Susp_Event
 0001:00001BF6       @VDD_VMIdle
 0001:00001C3C       VDD_VMTimeOut
 0001:00001C5C       VDD_Update_Window
 0001:00001C70       VDD_Set_VM_Time_Out
 0001:00001CA8       VDD_Clr_VM_Time_Out
 0001:00001CC5       VDD_Detach
 0001:00001D24       VDD_Attach2
 0001:00001D64       VDD_Detach2
 0001:00001DB2       VDD_VMDA_Update
 0001:00001DDE       VV_Update_Event
 0001:00001E0C       Vid_Upd_CallBack
 0001:00001E2F       VDD_VMDA_Grab
 0001:00001E5B       VV_Grab_Event
 0001:00001E89       Vid_Grab_CallBack
 0001:00001E94       VDD_State_VMCreate
 0001:00001F26       VDD_State_GetStt
 0001:00002060       VDD_State_CtlrChgs
 0001:00002146       VDD_State_MemChgs
 0001:0000227A       VDD_State_Query
 0001:00002307       VDD_Mod_Text
 0001:00002385       Setup_Start_Count
 0001:000023BD       VMT_Comp
 0001:000024CD       VMTC_CombineRect
 0001:000024F9       VMTC_CombineThree
 0001:0000254C       VMTC_CheckRect
 0001:0000261B       VMT_Check_Scroll
 0001:0000269E       ConvertToScroll
 0001:000026FB       FoundScrollRect
 0001:0000278F       VDD_State_Update
 0001:000027EF       Vid_Chk_Cursor
 0001:00002841       VDD_Scrn_Size
 0001:0000290A       VDD_Get_Mode
 0001:000029E1       VDD_Get_EGA_Posn
 0001:00002A08       VDD_IO_SetTrap
 0001:00002AD8       VIOT_In_Undef
 0001:00002AE0       VIOT_Ignore
 0001:00002B00       VIOT_3C0
 0001:00002B30       VIOT_3C1
 0001:00002BA0       VIOT_3C2
 0001:00002BE4       VIOT_3C4
 0001:00002C24       VIOT_3C5
 0001:00002DA0       VIOT_3C6
 0001:00002DCC       VIOT_3C7
 0001:00002E28       VIOT_3C8
 0001:00002E8C       VIOT_3C9
 0001:00002F30       VIOT_3CA
 0001:00002F5C       VIOT_3CC
 0001:00002F94       VIOT_3CE
 0001:00002FD4       VIOT_3CF
 0001:00003058       VIOT_3D4
 0001:00003098       VIOT_3D5
 0001:00003118       VIOT_3DA
 0001:00003198       VIOT_3DB
 0001:000031C4       VIOT_3DC
 0001:000031F0       VOT_VS_Fin
 0001:000031FC       VOT_VS_Mask
 0001:00003208       VOT_VS_MMode
 0001:00003234       VOT_VG_Fin
 0001:00003240       VOT_VG_SREna
 0001:00003254       VOT_VG_Func
 0001:00003268       VOT_VG_Mask
 0001:0000327C       VOT_VG_Mode
 0001:00003290       VOT_VG_MSlct
 0001:0000329C       VOT_VG_Misc
 0001:000032BC       VOT_2S_Mask
 0001:000032D0       VOT_2S_MMode
 0001:000032F8       VOT_2G_DoIt
 0001:0000330C       VOT_2G_Misc
 0001:00003338       VOT_2G_Mode
 0001:00003360       VDD_Int_10
 0001:00003539       VDD_I10_Mode_Switch
 0001:0000361C       VDD_I10_Mode_Sw_Done
 0001:0000368C       VDD_PM_Int_2F
 0001:000036B3       VDD_Int_2F
 0001:00003730       VDD_Save
 0001:0000378D       VDD_Backgrnd_Event
 0001:0000380C       VDD_Restore
 0001:000038B2       VDD_Do_Restore
 0001:000038C7       VDD_Dont_Restore
 0001:000038E3       VDD_Cancel_Restore
 0001:00003900       VDD_Restore_Event
 0001:00003A3B       VDD_FGrnd_Notify
 0001:00003A7F       VDD_Save2
 0001:00003AD9       VDD_Restore2
 0001:00003B00       VDD_Cancel_Restore2
 0001:00003B17       VDD_Restore2_Event
 0001:00003BD8       VDD_Grab
 0001:00003C99       VDD_GrabTextMode
 0001:00003CF3       VDD_CopyTextPages
 0001:00003D7C       VDD_SR_Setup
 0001:00003E05       VDD_SRAM
 0001:00003F6F       VDD_Save_RAM
 0001:00004133       VDD_Clear_RAM
 0001:000041A3       VDD_Restore_RAM
 0001:000043B0       VDD_MsgRestFontAndClear
 0001:00004402       VDD_MsgSaveFont
 0001:0000443B       VDD_RestCRTC
 0001:0000460F       VDD_OutC_Ctrlr
 0001:0000462C       VDD_Scrn_Off
 0001:0000469A       VDD_RestIndx
 0001:00004778       VDD_Global_Restore
 0001:000047C9       VDD_Pre_SR
 0001:00004943       VDD_SaveMsgStt
 0001:00004990       VDD_RestMsgStt
 0001:000049D0       VDD_Save_Latches
 0001:00004A88       VDD_Restore_Latches
 0001:00004B21       VDD_RestCtlr
 0001:00004D44       VDD_SaveRegs_Event
 0001:00004D4C       VDD_SaveRegs
 0001:00004D6A       @VDD_Get_Version
 0001:00004D7E       VDD_Get_GrbVersion
 0001:00004D96       VDD_Begin_Msg_Mode
 0001:00004DE4       VDD_End_Msg_Mode
 0001:00004E7A       @VDD_Msg_ClrScrn
 0001:00004F15       VDD_Msg_InitScreen
 0001:00004FB6       @VDD_Msg_ForColor
 0001:00005035       @VDD_Msg_BakColor
 0001:000050B7       @VDD_Msg_TextOut
 0001:000051C4       @VDD_Msg_SetCursPos
 0001:00005260       @VDD_PIF_State
 0001:00005291       @VDD_Set_HCurTrk
 0001:000052B7       @VDD_Get_GrabRtn
 0001:000052D7       @VDD_Hide_Cursor
 0001:00005348       @VDD_Query_Access
 0001:000053BA       @VDD_Set_VMType
 0001:0000542F       @VDD_Get_ModTime
 0001:0000546D       VDD_PM_API
 0001:000054E8       VDD_Grb_Version
 0001:00005533       VDD_Get_GrbState
 0001:0000553E       VDD_Get_State
 0001:000055BE       VDD_Get_Mod
 0001:000056B8       VDD_Clear_Mod
 0001:00005712       VDD_Get_Mem
 0001:0000573A       VDD_Suspend_NormSch
 0001:0000576E       VDD_Get_GrbMem
 0001:0000577E       VGMm_Set_Struc
 0001:00005808       VDD_Free_Grab
 0001:0000581B       VDD_Free_Mem
 0001:00005830       VDD_Unlock_APP
 0001:0000587E       VDD_SysModalMsg
 0001:00005894       VDD_Message
 0001:000058AB       VDD_Msg_NotWindow
 0001:000058C3       VDD_Msg_Exclusive
 0001:000058DB       VDD_Msg_NoSupMode
 0001:000058F3       VDD_Msg_NoFGrnd
 0001:0000590B       VDD_Msg_NoMainMem
 0001:00005927       VDD_Msg_NoCopyMem
 0001:00005943       VDD_Msg_CannotGrab
 0001:00005960       VDD_Init_DAC
 0001:00005996       VDD_SaveCtlr
 0001:00005A6F       VDD_VGA_SaveAttr
 0001:00005B00       VDD_VGA_SaveMisc
 0001:00005B20       VDD_VGA_SaveCRTC
 0001:00005B61       VDD_VGA_SaveGrp
 0001:00005BF6       VDD_VGA_SaveSeq
 0001:00005C32       VDD_VGA_SaveDAC
 0001:00005C65       VDD_Rest_DAC
 0001:00005CD4       V7_RestCRTC
 0001:00005DAF       james0
 0001:00005DDB       V7_RestCTLR
 0001:00005EE3       james1
 0001:00005EF6       V7_ExtRegs_PreSR
 0001:00005F99       V7_SaveExtRegs
 0001:0000604C       $VDD_Get_Version
 0001:00006050       $VDD_PIF_State
 0001:00006054       $VDD_Get_GrabRtn
 0001:00006058       $VDD_Hide_Cursor
 0001:0000605C       $VDD_Set_VMType
 0001:00006060       $VDD_Get_ModTime
 0001:00006064       $VDD_Set_HCurTrk
 0001:00006068       $VDD_Msg_ClrScrn
 0001:0000606C       $VDD_Msg_ForColor
 0001:00006070       $VDD_Msg_BakColor
 0001:00006074       $VDD_Msg_TextOut
 0001:00006078       $VDD_Msg_SetCursPos
 0001:0000607C       $VDD_Query_Access
 0001:00006080       $VDD_Check_Update_Soon
 0001:00006084       VDD_DDB
 0001:000060BC       VDD_Focus_VM
 0001:00006634       VDD_PT_Buff
 0001:00006724       VDD_Mem_Ini_Tab
 0001:00006774       VDD_Mem_Ini_Tab2
 0001:00006B0C       VDD_VMIdle_Chain
 0001:00006B10       VDD_SetTime_Chain
 0001:00006BD4       VDD_Mod_MskTab
 0001:00006C24       VDD_Mod_MskTab2
 0001:00006D6C       VDD_SG0_JTab
 0001:00006DEC       VDD_SG2_JTab
 0001:00006E6C       VDD_SGx_JTab
 0001:00006F50       Vid_VM_Handle
 0001:00006F54       Vid_VM_Handle2
 0001:00006F58       Vid_VM_HandleRun
 0001:00006F5C       Vid_Flags
 0001:00006F60       VDD_CB_Off
 0001:00006F64       VDD_Win_Update_Time
 0001:00006F68       VDD_Initial_Text_Rows
 0001:00006F6C       VDD_I10_OldVector
 0001:00006F70       VDD_Stub_I10_Vector
 0001:00006F74       VDD_I2F_Next_CS
 0001:00006F78       VDD_I2F_Next_EIP
 0001:00006F7C       VMB_Str_NoMainMem
 0001:0000700E       VMB_Str_NoCopyMem
 0001:000070E0       VMB_Str_Exclusive
 0001:000071B1       VMB_Str_NotWindow
 0001:0000726D       VMB_Str_NoSupMode
 0001:0000732A       VMB_Str_NoFGrnd
 0001:0000742E       VMB_Str_CannotGrab
 0001:00007488       VDD_Msg_Pseudo_VM
 0001:0000748C       VDD_Msg_Pseudo_CB
 0001:00009B93       VDD_Rest_Event_Handle
 0001:00009B97       VDD_Rest2_Event_Handle
 0001:00009B9B       VDD_PhysA0000
 0001:00009B9F       VDD_Latch_Addr
 0001:00009BA3       VDD_Phys2EGA
 0001:00009BA7       VDD_2EGA_Start
 0001:00009C4B       VDD_Grb_MskTab
 0001:0000A0BC       VDD_Msg_VM
 0001:0000A0C0       VDD_Scrn_Attr
 0002:00000000       VDD_Sys_Critical_Init
 0002:00000305       VDD_Device_Init
 0002:00000564       VDD_IO_Init
 0002:000005F0       VDD_IO_Table
 0002:000006C4       VDD_Str_CheckVidPgs
 0002:00000722       VDD_Str_BadDevice
 0002:00000768       VDD_Time_Ini
 0002:00000779       VDD_Text_Rows_Ini
 0002:00000785       VDD_Text_Rows_Sect
 0002:00000793       VDD_2nd_Ini

Program entry point at 0003:0017
