
 COMM

 Start     Length     Name                   Class
 0001:0000 00134H     _INIT                  CODE
 0002:0000 01288H     _TEXT                  CODE
 0003:0000 00592H     _INTERRUPT             CODE
 0004:0000 004D8H     _DATA                  DATA

 Origin   Group
 0004:0   DGROUP

 Address   Export                  Alias

 0002:0198 cclrbrk                 cclrbrk
 0002:0143 cevt                    cevt
 0002:015F cevtGet                 cevtGet
 0002:0107 cextfcn                 cextfcn
 0002:0123 cflush                  cflush
 0002:01D2 CommWriteString         CommWriteString
 0002:017B csetbrk                 csetbrk
 0002:00B2 ctx                     ctx
 0002:01F9 EnableNotification      EnableNotification
 0002:01B5 getdcb                  getdcb
 0002:0000 inicom                  inicom
 0002:0A47 ReactivateOpenCommPorts  ReactivateOpenCommPorts
 0002:0073 ReadCommString          ReadCommString
 0002:004E reccom                  reccom
 0002:0019 setcom                  setcom
 0002:0032 setque                  setque
 0002:0096 sndcom                  sndcom
 0002:00E7 stacom                  stacom
 0002:0A46 SuspendOpenCommPorts    SuspendOpenCommPorts
 0002:00CE trmcom                  trmcom
 0002:021F WEP                     WEP

  Address         Publics by Name

 0002:103A       $CLRBRK
 0002:0AA5       $DCBPTR
 0002:0747       $ENANOTIFY
 0002:0FBC       $EVT
 0002:0FD2       $EVTGET
 0002:107A       $EXTCOM
 0002:0EF6       $FLUSH
 0002:03EB       $INICOM
 0004:0318       $MACHINEID
 0002:0C72       $RECCOM
 0002:0D25       $RECSTR
 0002:1035       $SETBRK
 0002:07E9       $SETCOM
 0002:07B7       $SETQUE
 0002:0E2D       $SNDCOM
 0002:0E79       $SNDCOMSTR
 0002:0E01       $SNDIMM
 0002:0FEA       $STACOM
 0002:05F9       $TRMCOM
 0004:031A       ACTIVECOMS
 0000:0000  Imp  ALLOCCSTODSALIAS     (KERNEL.170)
 0003:014B       APIHANDLER
 0003:0528       CALLBACK_EVENT
 0002:0198       cclrbrk
 0002:0143       cevt
 0002:015F       cevtGet
 0002:0107       cextfcn
 0002:0123       cflush
 0002:103D       CLRBRK10
 0002:105D       CLRBRK20
 0002:1060       CLRBRK30
 0003:00B7       COMHANDLER
 0004:0000       COMM1
 0004:00A6       COMM2
 0004:014C       COMM3
 0004:01F2       COMM4
 0004:04A1       COMMBASEX
 0004:04BB       COMMDSRX
 0004:04B2       COMMFIFOX
 0003:01C3       COMMINT
 0004:04AA       COMMIRQX
 0002:01D2       CommWriteString
 0004:0298       COMPTRS
 0002:024D       CONTENTION_DLG
 0003:0006       CONTROL
 0000:0000  Imp  CreateSystemTimer    (SYSTEM.2)
 0002:017B       csetbrk
 0002:00B2       ctx
 0003:0266       DATAAVAIL
 0003:032C       DATAAVAIL100
 0003:0355       DATAAVAIL110
 0003:0365       DATAAVAIL120
 0003:037A       DATAAVAIL130
 0003:037E       DATAAVAIL140
 0003:02A9       DATAAVAIL25
 0003:02B4       DATAAVAIL30
 0003:02C3       DATAAVAIL50
 0003:02C6       DATAAVAIL60
 0003:02F0       DATAAVAIL70
 0003:0306       DATAAVAIL80
 0003:030F       DATAAVAIL90
 0002:0AB3       DCBPTR10
 0003:0081       DEF_COM_INT_1
 0003:004B       DEF_COM_INT_2
 0003:005D       DEF_COM_INT_3
 0003:006F       DEF_COM_INT_4
 0003:0088       DEF_HANDLER
 0003:0078       DEF_RM_COM_INT_1
 0003:0042       DEF_RM_COM_INT_2
 0003:0054       DEF_RM_COM_INT_3
 0003:0066       DEF_RM_COM_INT_4
 0002:1106       DOLPT
 0002:11F1       DOLPT40
 0002:01F9       EnableNotification
 0003:011B       ENTRY_FROM_RM
 0002:0FD0       EVT10
 0002:0FE8       EVTGET10
 0002:108D       EXTCOM10
 0002:1092       EXTCOM20
 0002:109F       EXTCOM30
 0002:10A4       EXTCOM40
 0002:10AB       EXTCOMDUMMY
 0002:10A7       EXTCOM_FN1
 0002:1100       EXTCOM_FN10
 0002:10AD       EXTCOM_FN2
 0002:10B6       EXTCOM_FN3
 0002:10C3       EXTCOM_FN4
 0002:10D0       EXTCOM_FN5
 0002:10DD       EXTCOM_FN6
 0002:10EA       EXTCOM_FN7
 0002:10F2       EXTCOM_FN8
 0002:10F9       EXTCOM_FN9
 0003:01B7       FAKECOMINTFAR
 0003:03A3       FAKEXMITEMPTY
 0002:0BD1       FINDCOMPORT
 0002:0F0B       FLUSH10
 0002:0F18       FLUSH20
 0002:0F1B       FLUSH30
 0002:0F1E       FLUSH40
 0000:0000  Imp  FREESELECTOR         (KERNEL.176)
 0004:0336       FVPD
 0000:0000  Imp  GETAPPCOMPATFLAGS    (KERNEL.354)
 0002:02F6       GETCOMPORT386
 0002:01B5       getdcb
 0002:0AB5       GETDEB
 0002:0ACE       GETDEB10
 0002:0ADD       GETDEB20
 0002:0AE1       GETDEB30
 0000:0000  Imp  GETMODULEHANDLE      (KERNEL.47)
 0002:0289       GETPORT386
 0000:0000  Imp  GETPRIVATEPROFILEINT (KERNEL.127)
 0000:0000  Imp  GETPRIVATEPROFILESTRING (KERNEL.128)
 0000:0000  Imp  GETPROCADDRESS       (KERNEL.50)
 0000:0000  Imp  GETSELECTORBASE      (KERNEL.186)
 0000:0000  Imp  GetSystemMsecCount   (SYSTEM.6)
 0002:0000       inicom
 0002:0A76       INITAPORT
 0002:0433       INITCOM10
 0002:05EF       INITCOM100
 0002:0442       INITCOM20
 0002:04BF       INITCOM40
 0002:051F       INITCOM50
 0002:0593       INITCOM59
 0002:0597       INITCOM60
 0002:05AC       INITCOM70
 0002:05CE       INITCOM80
 0002:05EA       INITCOM90
 0003:0212       INTERRUPTLOOP
 0003:0218       INTLOOP10
 0003:0223       INTLOOP20
 0004:0376       IRQHOOKS
 0002:0F28       KICKTX
 0002:0F41       KICKTX10
 0003:024D       LINESTAT
 0001:002A       LOADLIB
 0000:0000  Imp  LOCKSEGMENT          (KERNEL.23)
 0004:049E       LPCOMMBASE
 0004:04B8       LPCOMMDSR
 0004:04AF       LPCOMMFIFO
 0004:04A7       LPCOMMIRQ
 0004:04C5       LPCOMMSECTION
 0004:0320       LPFNMESSAGEBOX
 0004:0324       LPFNVPD
 0004:031C       LPPOSTMESSAGE
 0004:04CC       LPSYSTEMINI
 0004:02A0       LPT1
 0004:02C8       LPT2
 0004:02F0       LPT3
 0002:11CA       LPT_GETSTATUS
 0002:1146       LPT_OUTCHAR
 0002:1116       LPT_RESET
 0002:11A0       LPT_STROBE
 0003:049E       MODEMSTATUS
 0003:04DD       MODEMSTATUS10
 0003:04F4       MODEMSTATUS20
 0003:04EE       MODEMSTATUS30
 0002:0F58       MSRRESTART
 0002:0F57       MSRWAIT
 0002:0F5A       MSRWAIT10
 0002:0F5D       MSRWAIT20
 0002:0F78       MSRWAIT30
 0002:0F86       MSRWAIT40
 0002:0F92       MSRWAIT50
 0002:0FA1       MSRWAIT60
 0002:0FAE       MSRWAIT70
 0002:0FB1       MSRWAIT80
 0002:0FB8       MSRWAIT90
 0003:0500       NOTIFY_OWNER
 0003:0392       OUTHANDSHAKINGCHAR
 0004:042D       PCOMBYTE
 0004:03C5       PLPTBYTE
 0002:0A47       ReactivateOpenCommPorts
 0002:0073       ReadCommString
 0002:004E       reccom
 0002:0D20       RECCOM100
 0002:0CB9       RECCOM40
 0002:0CD1       RECCOM50
 0002:0CDB       RECCOM60
 0002:0CF8       RECCOM70
 0002:0D0A       RECCOM80
 0002:0D0F       RECCOM90
 0002:0D1E       RECCOM95
 0003:0140       RM_APIHANDLER
 0003:0002       RM_CALLBACK
 0003:0000       RM_INTDATASEG
 0002:0C3B       ROTATE_PIC
 0002:0226       SEGMENTFROMSELECTOR
 0002:0E36       SENDCOM10
 0002:0E3D       SENDCOM20
 0002:0E5C       SENDCOM30
 0002:0E6D       SENDCOM40
 0002:0E70       SENDCOM50
 0002:0E74       SENDCOM60
 0002:0E17       SENDIMM10
 0002:0E2B       SENDIMM20
 0002:0019       setcom
 0002:07FE       SETCOM10
 0002:0803       SETCOM20
 0002:0979       SETCOM210
 0002:0981       SETCOM220
 0002:0989       SETCOM230
 0002:0991       SETCOM240
 0002:09CC       SETCOM310
 0002:09FE       SETCOM410
 0002:0A02       SETCOM420
 0002:0A0C       SETCOM430
 0002:0A2B       SETCOM440
 0002:0A2D       SETCOM450
 0002:0A3C       SETCOM460
 0002:0A41       SETCOM470
 0002:07FC       SETCOM5
 0002:0032       setque
 0002:07E6       SETQUE10
 0002:0096       sndcom
 0002:00E7       stacom
 0002:1023       STACOM20
 0002:102E       STACOM25
 0002:1033       STACOM30
 0002:0393       STEALPORT
 0002:1220       STRINGTOLPT
 0002:0A46       SuspendOpenCommPorts
 0004:0426       SZCOMMESSAGE
 0004:03BE       SZMESSAGE
 0002:0618       TERMCOM10
 0002:0624       TERMCOM15
 0002:0638       TERMCOM20
 0002:0639       TERMCOM30
 0002:0641       TERMCOM60
 0002:0644       TERMINATE
 0002:064E       TERMINATE10
 0002:065C       TERMINATE20
 0002:0663       TERMINATE30
 0002:06B1       TERMINATE45
 0002:0716       TERMINATE49
 0002:0648       TERMINATE5
 0002:0744       TERMINATE50
 0003:054B       TIMERPROC
 0002:00CE       trmcom
 0002:0F21       TXI
 0000:0000  Imp  UNLOCKSEGMENT        (KERNEL.24)
 0004:0319       USING_DPMI
 0004:0330       VCD_INT_CALLBACK
 0002:021F       WEP
 0003:03C6       XMITEMPTY
 0003:03D9       XMITEMPTY10
 0003:0496       XMITEMPTY100
 0003:049A       XMITEMPTY110
 0003:03E4       XMITEMPTY20
 0003:03EA       XMITEMPTY30
 0003:03F3       XMITEMPTY40
 0003:0455       XMITEMPTY59
 0003:046C       XMITEMPTY60
 0003:0492       XMITEMPTY90
 0004:048E       _SZTITLE
 0000:0000  Imp  __0040H              (KERNEL.193)
 0000:0000  Imp  __F000H              (KERNEL.194)
 0000:0000  Imp  __WINFLAGS           (KERNEL.178)

  Address         Publics by Value

 0000:0000  Imp  GETAPPCOMPATFLAGS    (KERNEL.354)
 0000:0000  Imp  GETPRIVATEPROFILESTRING (KERNEL.128)
 0000:0000  Imp  GETPROCADDRESS       (KERNEL.50)
 0000:0000  Imp  GETPRIVATEPROFILEINT (KERNEL.127)
 0000:0000  Imp  __0040H              (KERNEL.193)
 0000:0000  Imp  GETSELECTORBASE      (KERNEL.186)
 0000:0000  Imp  __F000H              (KERNEL.194)
 0000:0000  Imp  GETMODULEHANDLE      (KERNEL.47)
 0000:0000  Imp  LOCKSEGMENT          (KERNEL.23)
 0000:0000  Imp  UNLOCKSEGMENT        (KERNEL.24)
 0000:0000  Imp  ALLOCCSTODSALIAS     (KERNEL.170)
 0000:0000  Imp  GetSystemMsecCount   (SYSTEM.6)
 0000:0000  Imp  CreateSystemTimer    (SYSTEM.2)
 0000:0000  Imp  FREESELECTOR         (KERNEL.176)
 0000:0000  Imp  __WINFLAGS           (KERNEL.178)
 0001:002A       LOADLIB
 0002:0000       inicom
 0002:0019       setcom
 0002:0032       setque
 0002:004E       reccom
 0002:0073       ReadCommString
 0002:0096       sndcom
 0002:00B2       ctx
 0002:00CE       trmcom
 0002:00E7       stacom
 0002:0107       cextfcn
 0002:0123       cflush
 0002:0143       cevt
 0002:015F       cevtGet
 0002:017B       csetbrk
 0002:0198       cclrbrk
 0002:01B5       getdcb
 0002:01D2       CommWriteString
 0002:01F9       EnableNotification
 0002:021F       WEP
 0002:0226       SEGMENTFROMSELECTOR
 0002:024D       CONTENTION_DLG
 0002:0289       GETPORT386
 0002:02F6       GETCOMPORT386
 0002:0393       STEALPORT
 0002:03EB       $INICOM
 0002:0433       INITCOM10
 0002:0442       INITCOM20
 0002:04BF       INITCOM40
 0002:051F       INITCOM50
 0002:0593       INITCOM59
 0002:0597       INITCOM60
 0002:05AC       INITCOM70
 0002:05CE       INITCOM80
 0002:05EA       INITCOM90
 0002:05EF       INITCOM100
 0002:05F9       $TRMCOM
 0002:0618       TERMCOM10
 0002:0624       TERMCOM15
 0002:0638       TERMCOM20
 0002:0639       TERMCOM30
 0002:0641       TERMCOM60
 0002:0644       TERMINATE
 0002:0648       TERMINATE5
 0002:064E       TERMINATE10
 0002:065C       TERMINATE20
 0002:0663       TERMINATE30
 0002:06B1       TERMINATE45
 0002:0716       TERMINATE49
 0002:0744       TERMINATE50
 0002:0747       $ENANOTIFY
 0002:07B7       $SETQUE
 0002:07E6       SETQUE10
 0002:07E9       $SETCOM
 0002:07FC       SETCOM5
 0002:07FE       SETCOM10
 0002:0803       SETCOM20
 0002:0979       SETCOM210
 0002:0981       SETCOM220
 0002:0989       SETCOM230
 0002:0991       SETCOM240
 0002:09CC       SETCOM310
 0002:09FE       SETCOM410
 0002:0A02       SETCOM420
 0002:0A0C       SETCOM430
 0002:0A2B       SETCOM440
 0002:0A2D       SETCOM450
 0002:0A3C       SETCOM460
 0002:0A41       SETCOM470
 0002:0A46       SuspendOpenCommPorts
 0002:0A47       ReactivateOpenCommPorts
 0002:0A76       INITAPORT
 0002:0AA5       $DCBPTR
 0002:0AB3       DCBPTR10
 0002:0AB5       GETDEB
 0002:0ACE       GETDEB10
 0002:0ADD       GETDEB20
 0002:0AE1       GETDEB30
 0002:0BD1       FINDCOMPORT
 0002:0C3B       ROTATE_PIC
 0002:0C72       $RECCOM
 0002:0CB9       RECCOM40
 0002:0CD1       RECCOM50
 0002:0CDB       RECCOM60
 0002:0CF8       RECCOM70
 0002:0D0A       RECCOM80
 0002:0D0F       RECCOM90
 0002:0D1E       RECCOM95
 0002:0D20       RECCOM100
 0002:0D25       $RECSTR
 0002:0E01       $SNDIMM
 0002:0E17       SENDIMM10
 0002:0E2B       SENDIMM20
 0002:0E2D       $SNDCOM
 0002:0E36       SENDCOM10
 0002:0E3D       SENDCOM20
 0002:0E5C       SENDCOM30
 0002:0E6D       SENDCOM40
 0002:0E70       SENDCOM50
 0002:0E74       SENDCOM60
 0002:0E79       $SNDCOMSTR
 0002:0EF6       $FLUSH
 0002:0F0B       FLUSH10
 0002:0F18       FLUSH20
 0002:0F1B       FLUSH30
 0002:0F1E       FLUSH40
 0002:0F21       TXI
 0002:0F28       KICKTX
 0002:0F41       KICKTX10
 0002:0F57       MSRWAIT
 0002:0F58       MSRRESTART
 0002:0F5A       MSRWAIT10
 0002:0F5D       MSRWAIT20
 0002:0F78       MSRWAIT30
 0002:0F86       MSRWAIT40
 0002:0F92       MSRWAIT50
 0002:0FA1       MSRWAIT60
 0002:0FAE       MSRWAIT70
 0002:0FB1       MSRWAIT80
 0002:0FB8       MSRWAIT90
 0002:0FBC       $EVT
 0002:0FD0       EVT10
 0002:0FD2       $EVTGET
 0002:0FE8       EVTGET10
 0002:0FEA       $STACOM
 0002:1023       STACOM20
 0002:102E       STACOM25
 0002:1033       STACOM30
 0002:1035       $SETBRK
 0002:103A       $CLRBRK
 0002:103D       CLRBRK10
 0002:105D       CLRBRK20
 0002:1060       CLRBRK30
 0002:107A       $EXTCOM
 0002:108D       EXTCOM10
 0002:1092       EXTCOM20
 0002:109F       EXTCOM30
 0002:10A4       EXTCOM40
 0002:10A7       EXTCOM_FN1
 0002:10AB       EXTCOMDUMMY
 0002:10AD       EXTCOM_FN2
 0002:10B6       EXTCOM_FN3
 0002:10C3       EXTCOM_FN4
 0002:10D0       EXTCOM_FN5
 0002:10DD       EXTCOM_FN6
 0002:10EA       EXTCOM_FN7
 0002:10F2       EXTCOM_FN8
 0002:10F9       EXTCOM_FN9
 0002:1100       EXTCOM_FN10
 0002:1106       DOLPT
 0002:1116       LPT_RESET
 0002:1146       LPT_OUTCHAR
 0002:11A0       LPT_STROBE
 0002:11CA       LPT_GETSTATUS
 0002:11F1       DOLPT40
 0002:1220       STRINGTOLPT
 0003:0000       RM_INTDATASEG
 0003:0002       RM_CALLBACK
 0003:0006       CONTROL
 0003:0042       DEF_RM_COM_INT_2
 0003:004B       DEF_COM_INT_2
 0003:0054       DEF_RM_COM_INT_3
 0003:005D       DEF_COM_INT_3
 0003:0066       DEF_RM_COM_INT_4
 0003:006F       DEF_COM_INT_4
 0003:0078       DEF_RM_COM_INT_1
 0003:0081       DEF_COM_INT_1
 0003:0088       DEF_HANDLER
 0003:00B7       COMHANDLER
 0003:011B       ENTRY_FROM_RM
 0003:0140       RM_APIHANDLER
 0003:014B       APIHANDLER
 0003:01B7       FAKECOMINTFAR
 0003:01C3       COMMINT
 0003:0212       INTERRUPTLOOP
 0003:0218       INTLOOP10
 0003:0223       INTLOOP20
 0003:024D       LINESTAT
 0003:0266       DATAAVAIL
 0003:02A9       DATAAVAIL25
 0003:02B4       DATAAVAIL30
 0003:02C3       DATAAVAIL50
 0003:02C6       DATAAVAIL60
 0003:02F0       DATAAVAIL70
 0003:0306       DATAAVAIL80
 0003:030F       DATAAVAIL90
 0003:032C       DATAAVAIL100
 0003:0355       DATAAVAIL110
 0003:0365       DATAAVAIL120
 0003:037A       DATAAVAIL130
 0003:037E       DATAAVAIL140
 0003:0392       OUTHANDSHAKINGCHAR
 0003:03A3       FAKEXMITEMPTY
 0003:03C6       XMITEMPTY
 0003:03D9       XMITEMPTY10
 0003:03E4       XMITEMPTY20
 0003:03EA       XMITEMPTY30
 0003:03F3       XMITEMPTY40
 0003:0455       XMITEMPTY59
 0003:046C       XMITEMPTY60
 0003:0492       XMITEMPTY90
 0003:0496       XMITEMPTY100
 0003:049A       XMITEMPTY110
 0003:049E       MODEMSTATUS
 0003:04DD       MODEMSTATUS10
 0003:04EE       MODEMSTATUS30
 0003:04F4       MODEMSTATUS20
 0003:0500       NOTIFY_OWNER
 0003:0528       CALLBACK_EVENT
 0003:054B       TIMERPROC
 0004:0000       COMM1
 0004:00A6       COMM2
 0004:014C       COMM3
 0004:01F2       COMM4
 0004:0298       COMPTRS
 0004:02A0       LPT1
 0004:02C8       LPT2
 0004:02F0       LPT3
 0004:0318       $MACHINEID
 0004:0319       USING_DPMI
 0004:031A       ACTIVECOMS
 0004:031C       LPPOSTMESSAGE
 0004:0320       LPFNMESSAGEBOX
 0004:0324       LPFNVPD
 0004:0330       VCD_INT_CALLBACK
 0004:0336       FVPD
 0004:0376       IRQHOOKS
 0004:03BE       SZMESSAGE
 0004:03C5       PLPTBYTE
 0004:0426       SZCOMMESSAGE
 0004:042D       PCOMBYTE
 0004:048E       _SZTITLE
 0004:049E       LPCOMMBASE
 0004:04A1       COMMBASEX
 0004:04A7       LPCOMMIRQ
 0004:04AA       COMMIRQX
 0004:04AF       LPCOMMFIFO
 0004:04B2       COMMFIFOX
 0004:04B8       LPCOMMDSR
 0004:04BB       COMMDSRX
 0004:04C5       LPCOMMSECTION
 0004:04CC       LPSYSTEMINI

Program entry point at 0001:002A
