
 SNDBLST2

 Start     Length     Name                   Class
 0001:0000 014B0H     _TEXT                  CODE
 0002:0000 0100EH     INIT                   CODE
 0003:0000 002C3H     COMMON                 CODE
 0004:0000 0109EH     WAVE                   CODE
 0005:0000 007C3H     MIDI                   CODE
 0006:0000 014D5H     _DATA                  DATA
 0006:14D6 00000H     CONST                  CONST
 0006:14D6 00000H     _BSS                   BSS
 0006:14E0 00038H     c_common               BSS

 Origin   Group
 0006:0   DGROUP

 Address   Export                  Alias

 0003:0000 DriverProc              DriverProc
 0005:01BE midMessage              midMessage
 0001:076A modMessage              modMessage
 0001:14AA WEP                     WEP
 0004:0182 widMessage              widMessage
 0004:0708 wodMessage              wodMessage

  Address         Publics by Name

 0001:1156       ASSERTBREAK
 0002:0014       CheckForMCA
 0000:0000  Imp  CHECKRADIOBUTTON     (USER.96)
 0002:0DEA       CONFIG
 0002:0E64       CONFIGDLGPROC
 0002:0D9C       CONFIGERRORMSGBOX
 0002:0B04       CONFIGGETDMACHANNEL
 0002:0A9E       CONFIGGETIRQ
 0002:0A48       CONFIGGETPORTBASE
 0002:0DD0       CONFIGREMOVE
 0003:0194       CRITENTER
 0003:01A2       CRITLEAVE
 0005:04F0       DebugMidi
 0000:0000  Imp  DEFDRIVERPROC        (USER.255)
 0000:0000  Imp  DIALOGBOX            (USER.87)
 0002:090E       Disable
 0002:04F3       dmaAllocateBuffer
 0002:059F       dmaFreeBuffer
 0001:11CD       dmaMaskChannel
 0004:0C8A       dmaStartDMA
 0000:0000  Imp  DRIVERCALLBACK       (MMSYSTEM.31)
 0003:0000       DriverProc
 0002:0049       dspAbsRead
 0002:006F       dspAbsWrite
 0001:1214       dspISR
 0001:1158       dspRead
 0003:024E       dspReset
 0004:0C46       DSPSETSAMPLERATE
 0003:01C8       dspSpeakerOff
 0003:01AE       dspSpeakerOn
 0001:1190       dspWrite
 0002:088B       Enable
 0000:0000  Imp  ENDDIALOG            (USER.88)
 0006:0E2B       gbDMABuffer
 0006:0F3C       gbDMAChannel
 0006:0F3D       gbDMAPageReg
 0006:0E2A       gbDMAPhysPage
 0006:0F3A       gbInt
 0006:0F45       gbIntCount
 0006:0F3B       gbIntMask
 0006:0E2D       gbIntUsed
 0006:03C2       gbMidiInFlags
 0006:03C3       gbMidiOutFlags
 0006:0C7C       gbWaveInFlags
 0006:0C7D       gbWaveOutFlags
 0006:0F34       gdwOldISR
 0000:0000  Imp  GETMODULEHANDLE      (KERNEL.47)
 0002:0E06       GETPORTANDINT
 0000:0000  Imp  GETPRIVATEPROFILEINT (KERNEL.127)
 0000:0000  Imp  GETPRIVATEPROFILESTRING (KERNEL.128)
 0002:095C       GETPROFILEHEX
 0000:0000  Imp  GETPROFILEINT        (KERNEL.57)
 0000:0000  Imp  GetSelectorBase      (KERNEL.186)
 0000:0000  Imp  GETVERSION           (KERNEL.3)
 0002:0B36       GETWINDOWSVERSIONCORRECTLY
 0000:0000  Imp  GlobalAlloc          (KERNEL.15)
 0000:0000  Imp  GlobalFree           (KERNEL.17)
 0000:0000  Imp  GlobalPageLock       (KERNEL.191)
 0000:0000  Imp  GlobalPageUnlock     (KERNEL.192)
 0006:1468       glpVSBDEntry
 0006:146C       gwAcquireCount
 0006:0E28       gwCurSampleRate
 0006:03C6       gwDebugInQueue
 0006:03C8       gwDebugMaxInQueue
 0006:03CA       gwDebugQueueKick
 0006:03C4       gwDebugQueueOF
 0006:0E24       gwDMAOffset
 0006:0E26       gwDMAPhysAddr
 0006:0E22       gwDMASelector
 0006:0F40       gwDSPVersion
 0006:0F3E       gwEOICommands
 0006:0F42       gwMidiInPersistence
 0006:0E2E       gwMidiOutDelay
 0006:0F38       gwPort
 0002:0B42       HARDERRORMSGBOX
 0002:0D72       IDTOINT
 0002:0CF4       IDTOPORT
 0002:0B7C       INITDISPLAYCONFIGERRORS
 0002:00DE       InitGetConfiguration
 0002:00FA       InitPreliminary
 0002:05CC       InitResetAdapter
 0002:0431       InitSetConfiguration
 0002:068E       InitSetInterruptVector
 0002:0641       InitSetIntMask
 0002:016C       InitVerifyConfiguration
 0002:0426       InitVerifyDMA
 0002:02BC       InitVerifyInt
 0002:0229       InitVerifyPort
 0002:0D3C       INTTOID
 0000:0000  Imp  ISDLGBUTTONCHECKED   (USER.98)
 0002:03FB       isrTest
 0006:0F46       isrTestNext
 0001:1291       isr_Int_MIDI_Input
 0001:126E       isr_Int_Unexpected
 0001:12C1       isr_Int_Wave_Input
 0001:1301       isr_Int_Wave_Output
 0002:0000       LibEntry
 0002:0BBC       LibMain
 0000:0000  Imp  LOADSTRING           (USER.176)
 0000:0000  Imp  LOCALALLOC           (KERNEL.5)
 0000:0000  Imp  LOCALFREE            (KERNEL.7)
 0000:0000  Imp  LocalInit            (KERNEL.4)
 0003:02A2       MEMCOPY
 0001:144B       MEMCOPYDST
 0001:1409       MEMCOPYSRC
 0001:148B       MEMFILLSILENT
 0000:0000  Imp  MESSAGEBOX           (USER.1)
 0005:06DC       MIDACQUIREHARDWARE
 0005:0082       MIDADDBUFFER
 0001:00AE       MIDBUFFERWRITE
 0001:018C       MIDBYTEREC
 0005:0000       MIDFREEQ
 0005:0178       MIDGETDEVCAPS
 0001:0000       MIDICALLBACK
 0005:01BE       midMessage
 0002:07E5       midReactivate
 0005:0722       MIDRELEASEHARDWARE
 0005:0120       MIDSENDPARTBUFFER
 0005:0765       MIDSTART
 0005:0794       MIDSTOP
 0002:07AE       midSuspend
 0005:066A       MODACQUIREHARDWARE
 0001:1378       MODDATAWRITE
 0005:0494       MODGETDEVCAPS
 0001:076A       modMessage
 0002:0850       modReactivate
 0005:06A5       MODRELEASEHARDWARE
 0001:0692       MODRESET
 0001:0552       MODSENDDATA
 0001:05BC       MODSENDLONGDATA
 0001:0610       MODSENDSHORTMSG
 0002:082B       modSuspend
 0000:0000  Imp  OUTPUTDEBUGSTR       (MMSYSTEM.30)
 0006:0008       pAtomTable
 0006:0006       pLocalHeap
 0002:0CA2       PORTTOID
 0006:000E       pStackBot
 0006:000C       pStackMin
 0006:000A       pStackTop
 0006:0006       rsrvptrs
 0000:0000  Imp  StackEnter           (MMSYSTEM.32)
 0000:0000  Imp  StackLeave           (MMSYSTEM.33)
 0000:0000  Imp  TIMEGETTIME          (MMSYSTEM.607)
 0002:002C       vdmadGetVersion
 0003:01E2       vsbdAcquireSoundBlaster
 0002:009C       vsbdGetEntryPoint
 0002:00BB       vsbdGetSoundBlasterInfo
 0003:0216       vsbdReleaseSoundBlaster
 0001:0F24       WAVECALLBACK
 0004:06A2       WAVEGETPOS
 0001:14AA       WEP
 0004:0E14       WIDACQUIREHARDWARE
 0004:0048       WIDADDBUFFER
 0001:111E       WIDBLOCKFINISHED
 0001:0FAE       WIDFILLBUFFER
 0004:0000       WIDFREEQ
 0004:012E       WIDGETDEVCAPS
 0004:0182       widMessage
 0002:06EC       widReactivate
 0004:0E5A       WIDRELEASEHARDWARE
 0004:00E6       WIDSENDPARTBUFFER
 0004:1037       WIDSTART
 0004:106D       WIDSTOP
 0002:06B5       widSuspend
 0004:0D8B       WODACQUIREHARDWARE
 0001:0F5E       WODBLOCKFINISHED
 0004:05AE       WODFREEQ
 0004:0646       WODGETDEVCAPS
 0001:11E8       WODHALTDMA
 0004:0D10       wodKickstartWaveOutput
 0001:0B52       WODLOADDMABUFFER
 0004:0708       wodMessage
 0004:0FF3       WODPAUSE
 0001:0A56       WODPOSTALLHEADERS
 0001:0AA4       WODPOSTDONEHEADERS
 0002:0768       wodReactivate
 0004:0DD1       WODRELEASEHARDWARE
 0004:100E       WODRESUME
 0002:0732       wodSuspend
 0004:0F83       WODWAITFORDMA
 0004:0E9D       WODWRITE
 0000:0000  Imp  WRITEPRIVATEPROFILESTRING (KERNEL.129)
 0002:0CF1       _aszHexFormat
 0002:0CEE       _aszIntFormat
 0006:0BEA       _bBreakLoop
 0006:0BDE       _dwCurCount
 0006:0BD6       _dwCurInCount
 0006:14FC       _dwLoopCount
 0006:0146       _gabMsgLenChannel
 0006:014E       _gabMsgLenSystem
 0006:0118       _gbMidiOutCurrentStatus
 0006:0132       _gdwDebugMIBytesRcvd
 0006:0142       _gdwDebugMidiDrvCallbacks
 0006:013A       _gdwDebugMILongMsgsRcvd
 0006:0136       _gdwDebugMIShortMsgsRcvd
 0006:011E       _gdwDebugMODataWrites
 0006:011A       _gdwDebugMODWriteErrors
 0006:012E       _gdwDebugMOLongMsgs
 0006:0122       _gdwDebugMOShortMsgs
 0006:012A       _gdwDebugMOShortMsgsBogus
 0006:0126       _gdwDebugMOShortMsgsRS
 0006:0E2C       _gfDMABusy
 0006:0F44       _gfEnabled
 0006:137E       _gfVerifyInt
 0006:0BEB       _gfWaveOutPaused
 0006:137A       _ghModule
 0006:0BF0       _glpWIQueue
 0006:0BEC       _glpWOQueue
 0006:14EE       _gMidiInClient
 0006:14E0       _gMidiOutClient
 0006:1500       _gMIMC
 0006:013E       _gwDebugMILongErrors
 0006:0140       _gwDebugMIShortErrors
 0006:137C       _gwErrorStringId
 0006:0BDA       _hpCurData
 0006:0BD2       _hpCurInData
 0006:0BE6       _lpDeadHeads
 0006:0BE2       _lpLoopStart
 0006:0BF4       _lpSilenceStart
 0006:136C       _STR_CRLF
 0002:0A0E       _STR_DMACHANNEL
 0002:0A33       _STR_DRIVERNAME
 0002:09DF       _STR_EVILTWIN
 0002:0A28       _STR_INIFILE
 0002:0A3F       _STR_INT
 0002:09CF       _STR_MMDEBUG
 0002:09F2       _STR_NOWARNING
 0002:0A19       _STR_NULL
 0002:09FC       _STR_PERSISTENCE
 0002:0A43       _STR_PORT
 0002:0A1A       _STR_PRODUCTNAME
 0002:09D7       _STR_SNDBLST
 0006:1378       _STR_SPACE
 0002:09E8       _STR_VERIFYINT
 0006:1380       _wDebugLevel
 0006:0BF8       _wSilenceSize
 0000:0000  Imp  _wsprintf            (USER.420)
 0000:0001  Abs  __acrtused
 0000:0000  Imp  __AHINCR             (KERNEL.114)
 0000:0000  Imp  __AHSHIFT            (KERNEL.113)
 0000:0000  Imp  __WinFlags           (KERNEL.178)

  Address         Publics by Value

 0000:0000  Imp  GlobalPageUnlock     (KERNEL.192)
 0000:0000  Imp  ENDDIALOG            (USER.88)
 0000:0000  Imp  GETVERSION           (KERNEL.3)
 0000:0000  Imp  __WinFlags           (KERNEL.178)
 0000:0000  Imp  OUTPUTDEBUGSTR       (MMSYSTEM.30)
 0000:0000  Imp  DEFDRIVERPROC        (USER.255)
 0000:0000  Imp  ISDLGBUTTONCHECKED   (USER.98)
 0000:0000  Imp  StackLeave           (MMSYSTEM.33)
 0000:0000  Imp  GETPRIVATEPROFILESTRING (KERNEL.128)
 0000:0000  Imp  LocalInit            (KERNEL.4)
 0000:0000  Imp  GETMODULEHANDLE      (KERNEL.47)
 0000:0000  Imp  MESSAGEBOX           (USER.1)
 0000:0000  Imp  GetSelectorBase      (KERNEL.186)
 0000:0000  Imp  __AHINCR             (KERNEL.114)
 0000:0000  Imp  GlobalPageLock       (KERNEL.191)
 0000:0000  Imp  GlobalFree           (KERNEL.17)
 0000:0000  Imp  DRIVERCALLBACK       (MMSYSTEM.31)
 0000:0000  Imp  GETPRIVATEPROFILEINT (KERNEL.127)
 0000:0000  Imp  DIALOGBOX            (USER.87)
 0000:0000  Imp  GlobalAlloc          (KERNEL.15)
 0000:0000  Imp  TIMEGETTIME          (MMSYSTEM.607)
 0000:0000  Imp  WRITEPRIVATEPROFILESTRING (KERNEL.129)
 0000:0000  Imp  StackEnter           (MMSYSTEM.32)
 0000:0000  Imp  _wsprintf            (USER.420)
 0000:0000  Imp  LOADSTRING           (USER.176)
 0000:0000  Imp  __AHSHIFT            (KERNEL.113)
 0000:0000  Imp  CHECKRADIOBUTTON     (USER.96)
 0000:0000  Imp  LOCALFREE            (KERNEL.7)
 0000:0000  Imp  LOCALALLOC           (KERNEL.5)
 0000:0000  Imp  GETPROFILEINT        (KERNEL.57)
 0000:0001  Abs  __acrtused
 0001:0000       MIDICALLBACK
 0001:00AE       MIDBUFFERWRITE
 0001:018C       MIDBYTEREC
 0001:0552       MODSENDDATA
 0001:05BC       MODSENDLONGDATA
 0001:0610       MODSENDSHORTMSG
 0001:0692       MODRESET
 0001:076A       modMessage
 0001:0A56       WODPOSTALLHEADERS
 0001:0AA4       WODPOSTDONEHEADERS
 0001:0B52       WODLOADDMABUFFER
 0001:0F24       WAVECALLBACK
 0001:0F5E       WODBLOCKFINISHED
 0001:0FAE       WIDFILLBUFFER
 0001:111E       WIDBLOCKFINISHED
 0001:1156       ASSERTBREAK
 0001:1158       dspRead
 0001:1190       dspWrite
 0001:11CD       dmaMaskChannel
 0001:11E8       WODHALTDMA
 0001:1214       dspISR
 0001:126E       isr_Int_Unexpected
 0001:1291       isr_Int_MIDI_Input
 0001:12C1       isr_Int_Wave_Input
 0001:1301       isr_Int_Wave_Output
 0001:1378       MODDATAWRITE
 0001:1409       MEMCOPYSRC
 0001:144B       MEMCOPYDST
 0001:148B       MEMFILLSILENT
 0001:14AA       WEP
 0002:0000       LibEntry
 0002:0014       CheckForMCA
 0002:002C       vdmadGetVersion
 0002:0049       dspAbsRead
 0002:006F       dspAbsWrite
 0002:009C       vsbdGetEntryPoint
 0002:00BB       vsbdGetSoundBlasterInfo
 0002:00DE       InitGetConfiguration
 0002:00FA       InitPreliminary
 0002:016C       InitVerifyConfiguration
 0002:0229       InitVerifyPort
 0002:02BC       InitVerifyInt
 0002:03FB       isrTest
 0002:0426       InitVerifyDMA
 0002:0431       InitSetConfiguration
 0002:04F3       dmaAllocateBuffer
 0002:059F       dmaFreeBuffer
 0002:05CC       InitResetAdapter
 0002:0641       InitSetIntMask
 0002:068E       InitSetInterruptVector
 0002:06B5       widSuspend
 0002:06EC       widReactivate
 0002:0732       wodSuspend
 0002:0768       wodReactivate
 0002:07AE       midSuspend
 0002:07E5       midReactivate
 0002:082B       modSuspend
 0002:0850       modReactivate
 0002:088B       Enable
 0002:090E       Disable
 0002:095C       GETPROFILEHEX
 0002:09CF       _STR_MMDEBUG
 0002:09D7       _STR_SNDBLST
 0002:09DF       _STR_EVILTWIN
 0002:09E8       _STR_VERIFYINT
 0002:09F2       _STR_NOWARNING
 0002:09FC       _STR_PERSISTENCE
 0002:0A0E       _STR_DMACHANNEL
 0002:0A19       _STR_NULL
 0002:0A1A       _STR_PRODUCTNAME
 0002:0A28       _STR_INIFILE
 0002:0A33       _STR_DRIVERNAME
 0002:0A3F       _STR_INT
 0002:0A43       _STR_PORT
 0002:0A48       CONFIGGETPORTBASE
 0002:0A9E       CONFIGGETIRQ
 0002:0B04       CONFIGGETDMACHANNEL
 0002:0B36       GETWINDOWSVERSIONCORRECTLY
 0002:0B42       HARDERRORMSGBOX
 0002:0B7C       INITDISPLAYCONFIGERRORS
 0002:0BBC       LibMain
 0002:0CA2       PORTTOID
 0002:0CEE       _aszIntFormat
 0002:0CF1       _aszHexFormat
 0002:0CF4       IDTOPORT
 0002:0D3C       INTTOID
 0002:0D72       IDTOINT
 0002:0D9C       CONFIGERRORMSGBOX
 0002:0DD0       CONFIGREMOVE
 0002:0DEA       CONFIG
 0002:0E06       GETPORTANDINT
 0002:0E64       CONFIGDLGPROC
 0003:0000       DriverProc
 0003:0194       CRITENTER
 0003:01A2       CRITLEAVE
 0003:01AE       dspSpeakerOn
 0003:01C8       dspSpeakerOff
 0003:01E2       vsbdAcquireSoundBlaster
 0003:0216       vsbdReleaseSoundBlaster
 0003:024E       dspReset
 0003:02A2       MEMCOPY
 0004:0000       WIDFREEQ
 0004:0048       WIDADDBUFFER
 0004:00E6       WIDSENDPARTBUFFER
 0004:012E       WIDGETDEVCAPS
 0004:0182       widMessage
 0004:05AE       WODFREEQ
 0004:0646       WODGETDEVCAPS
 0004:06A2       WAVEGETPOS
 0004:0708       wodMessage
 0004:0C46       DSPSETSAMPLERATE
 0004:0C8A       dmaStartDMA
 0004:0D10       wodKickstartWaveOutput
 0004:0D8B       WODACQUIREHARDWARE
 0004:0DD1       WODRELEASEHARDWARE
 0004:0E14       WIDACQUIREHARDWARE
 0004:0E5A       WIDRELEASEHARDWARE
 0004:0E9D       WODWRITE
 0004:0F83       WODWAITFORDMA
 0004:0FF3       WODPAUSE
 0004:100E       WODRESUME
 0004:1037       WIDSTART
 0004:106D       WIDSTOP
 0005:0000       MIDFREEQ
 0005:0082       MIDADDBUFFER
 0005:0120       MIDSENDPARTBUFFER
 0005:0178       MIDGETDEVCAPS
 0005:01BE       midMessage
 0005:0494       MODGETDEVCAPS
 0005:04F0       DebugMidi
 0005:066A       MODACQUIREHARDWARE
 0005:06A5       MODRELEASEHARDWARE
 0005:06DC       MIDACQUIREHARDWARE
 0005:0722       MIDRELEASEHARDWARE
 0005:0765       MIDSTART
 0005:0794       MIDSTOP
 0006:0006       rsrvptrs
 0006:0006       pLocalHeap
 0006:0008       pAtomTable
 0006:000A       pStackTop
 0006:000C       pStackMin
 0006:000E       pStackBot
 0006:0118       _gbMidiOutCurrentStatus
 0006:011A       _gdwDebugMODWriteErrors
 0006:011E       _gdwDebugMODataWrites
 0006:0122       _gdwDebugMOShortMsgs
 0006:0126       _gdwDebugMOShortMsgsRS
 0006:012A       _gdwDebugMOShortMsgsBogus
 0006:012E       _gdwDebugMOLongMsgs
 0006:0132       _gdwDebugMIBytesRcvd
 0006:0136       _gdwDebugMIShortMsgsRcvd
 0006:013A       _gdwDebugMILongMsgsRcvd
 0006:013E       _gwDebugMILongErrors
 0006:0140       _gwDebugMIShortErrors
 0006:0142       _gdwDebugMidiDrvCallbacks
 0006:0146       _gabMsgLenChannel
 0006:014E       _gabMsgLenSystem
 0006:03C2       gbMidiInFlags
 0006:03C3       gbMidiOutFlags
 0006:03C4       gwDebugQueueOF
 0006:03C6       gwDebugInQueue
 0006:03C8       gwDebugMaxInQueue
 0006:03CA       gwDebugQueueKick
 0006:0BD2       _hpCurInData
 0006:0BD6       _dwCurInCount
 0006:0BDA       _hpCurData
 0006:0BDE       _dwCurCount
 0006:0BE2       _lpLoopStart
 0006:0BE6       _lpDeadHeads
 0006:0BEA       _bBreakLoop
 0006:0BEB       _gfWaveOutPaused
 0006:0BEC       _glpWOQueue
 0006:0BF0       _glpWIQueue
 0006:0BF4       _lpSilenceStart
 0006:0BF8       _wSilenceSize
 0006:0C7C       gbWaveInFlags
 0006:0C7D       gbWaveOutFlags
 0006:0E22       gwDMASelector
 0006:0E24       gwDMAOffset
 0006:0E26       gwDMAPhysAddr
 0006:0E28       gwCurSampleRate
 0006:0E2A       gbDMAPhysPage
 0006:0E2B       gbDMABuffer
 0006:0E2C       _gfDMABusy
 0006:0E2D       gbIntUsed
 0006:0E2E       gwMidiOutDelay
 0006:0F34       gdwOldISR
 0006:0F38       gwPort
 0006:0F3A       gbInt
 0006:0F3B       gbIntMask
 0006:0F3C       gbDMAChannel
 0006:0F3D       gbDMAPageReg
 0006:0F3E       gwEOICommands
 0006:0F40       gwDSPVersion
 0006:0F42       gwMidiInPersistence
 0006:0F44       _gfEnabled
 0006:0F45       gbIntCount
 0006:0F46       isrTestNext
 0006:136C       _STR_CRLF
 0006:1378       _STR_SPACE
 0006:137A       _ghModule
 0006:137C       _gwErrorStringId
 0006:137E       _gfVerifyInt
 0006:1380       _wDebugLevel
 0006:1468       glpVSBDEntry
 0006:146C       gwAcquireCount
 0006:14E0       _gMidiOutClient
 0006:14EE       _gMidiInClient
 0006:14FC       _dwLoopCount
 0006:1500       _gMIMC

Line numbers for libinit.obj(libinit.ASM) segment INIT

   126 0002:0000   127 0002:0001   128 0002:0002   129 0002:0003
   133 0002:0004   135 0002:0006   138 0002:0010   140 0002:0013

Program entry point at 0002:0000


Line numbers for midiin.obj(midiin.c) segment MIDI

    37 0005:0000    41 0005:0006    42 0005:0012    43 0005:001A
    45 0005:0020    47 0005:0033    48 0005:003A    49 0005:004A
    50 0005:004F    51 0005:0054    52 0005:005E    54 0005:0071
    55 0005:007D     0 0005:0081    71 0005:0082    75 0005:008B
    76 0005:0095    79 0005:009A    80 0005:00A1    83 0005:00A6
    84 0005:00AB    87 0005:00B0    88 0005:00BA    90 0005:00C2
    92 0005:00C7   100 0005:00D7    93 0005:00E3    96 0005:0101
   102 0005:010F   105 0005:0114   106 0005:0118     0 0005:011F
   119 0005:0120   122 0005:0121   123 0005:0133   124 0005:013C
   125 0005:014F   126 0005:0157   127 0005:015C   128 0005:0161
   130 0005:0176     0 0005:0177   144 0005:0178   147 0005:017C
   148 0005:0181   149 0005:0186   150 0005:018B   152 0005:019D
   153 0005:01B9     0 0005:01BD   161 0005:01BE   162 0005:01C8
   163 0005:01D2   164 0005:01D7   165 0005:01F2   169 0005:01FA
   170 0005:0215   174 0005:0224   175 0005:022A   176 0005:0245
   179 0005:024B   279 0005:024E   278 0005:0272   181 0005:0278
   182 0005:0293   185 0005:0299   186 0005:02B4   190 0005:02C3
   193 0005:02DE   194 0005:02E7   195 0005:0302   200 0005:0308
   201 0005:031A   202 0005:0329   203 0005:032F   206 0005:033C
   207 0005:0344   213 0005:034A   216 0005:0356   221 0005:035E
   223 0005:0379   224 0005:0382   227 0005:0388   230 0005:038D
   231 0005:0396   235 0005:03B1   237 0005:03C4   240 0005:03C7
   243 0005:03E2   246 0005:03EE   252 0005:0409   253 0005:0417
   254 0005:041F   255 0005:0425   256 0005:042B   259 0005:0431
   261 0005:043D   262 0005:0442   265 0005:0444   266 0005:045F
   267 0005:0464   270 0005:0466   273 0005:0481   274 0005:0486
   275 0005:0489   284 0005:048D     0 0005:0493

Line numbers for midiout.obj(midiout.c) segment MIDI

    26 0005:0494    30 0005:0498    31 0005:049D    32 0005:04A2
    34 0005:04AB    35 0005:04B3    36 0005:04B8    37 0005:04BE
    39 0005:04D0    40 0005:04EC     0 0005:04EF

Line numbers for midifix.obj(midifix.c) segment _TEXT

   165 0001:0000   167 0001:0003   185 0001:0006   169 0001:0016
   170 0001:0020   173 0001:0022   174 0001:002C   177 0001:002E
   178 0001:0049   179 0001:004D   182 0001:004F   183 0001:006A
   186 0001:006E   198 0001:0078   205 0001:0082   206 0001:00AA
     0 0001:00AD   221 0001:00AE   225 0001:00B3   229 0001:00C6
   231 0001:00D8   234 0001:0105   239 0001:0121   240 0001:013C
   241 0001:014F   242 0001:0161   243 0001:0169   244 0001:016E
   245 0001:0173   246 0001:0187     0 0001:018B   260 0001:018C
   264 0001:0190   266 0001:01A3   275 0001:01AD   276 0001:01B3
   277 0001:01CE   288 0001:01EE   290 0001:01F5   293 0001:021C
   296 0001:0221   302 0001:0228   310 0001:0231   311 0001:0238
   312 0001:0253   313 0001:026D   319 0001:0275   329 0001:0282
   331 0001:028B   333 0001:0290   374 0001:0295   370 0001:02B5
   371 0001:02D0   372 0001:02F0   335 0001:02F3   336 0001:030E
   337 0001:0313   338 0001:031A   355 0001:031D   356 0001:0338
   358 0001:033E   359 0001:0346   362 0001:0349   363 0001:0364
   364 0001:036A   365 0001:036F   366 0001:0374   348 0001:0377
   349 0001:0392   350 0001:03AC   351 0001:03B1   341 0001:03B4
   342 0001:03CF   343 0001:03D4   379 0001:03D7   382 0001:03F2
   383 0001:03F8   384 0001:03FB   388 0001:0400   396 0001:0408
   403 0001:0418   389 0001:041B   390 0001:0436   391 0001:0456
   393 0001:045B   405 0001:045E   406 0001:0465   409 0001:0483
   414 0001:0490   417 0001:04AB   419 0001:04B9   420 0001:04BF
   424 0001:04CC   426 0001:04DD   427 0001:04E3   428 0001:04FD
   430 0001:0505   431 0001:050E   441 0001:0519   444 0001:0534
   447 0001:054E     0 0001:0551   460 0001:0552   463 0001:0556
   466 0001:0568   468 0001:0584   472 0001:0595   473 0001:05A0
   474 0001:05AA   475 0001:05AC   479 0001:05B6   480 0001:05B8
     0 0001:05BB   490 0001:05BC   491 0001:05C3   497 0001:05CD
   502 0001:05D7   505 0001:05E9   508 0001:05F1   509 0001:0601
   514 0001:0605   515 0001:060A     0 0001:060F   525 0001:0610
   530 0001:0614   531 0001:061E   532 0001:063E   536 0001:0648
   537 0001:0651   538 0001:065B   543 0001:065F   544 0001:0671
   548 0001:067B   551 0001:068B   552 0001:068E     0 0001:0691
   562 0001:0692   569 0001:069C   570 0001:06A9   573 0001:06AC
   578 0001:06C9   580 0001:06CB   583 0001:06D6   586 0001:06E3
   587 0001:06E6   578 0001:06F8   590 0001:06FE   593 0001:0719
   595 0001:071F   596 0001:0727   597 0001:072D   598 0001:0733
   599 0001:0739   600 0001:073F   602 0001:0745   603 0001:074B
   604 0001:0751   606 0001:0757   608 0001:075D   612 0001:0763
   613 0001:0766     0 0001:0769   621 0001:076A   622 0001:0775
   625 0001:077A   626 0001:0784   627 0001:0789   628 0001:07A4
   629 0001:07A9   632 0001:07AB   633 0001:07C6   637 0001:07D9
   638 0001:07DF   639 0001:07FA   642 0001:07FF   746 0001:0802
   745 0001:0822   644 0001:0827   645 0001:0842   648 0001:0847
   649 0001:0862   653 0001:0873   656 0001:088E   657 0001:0897
   658 0001:08B2   662 0001:08B8   663 0001:08CA   664 0001:08D9
   665 0001:08DF   668 0001:08EC   671 0001:08F1   676 0001:0906
   679 0001:0921   682 0001:0933   683 0001:093C   686 0001:095A
   709 0001:095D   714 0001:0978   715 0001:0981   720 0001:0999
   728 0001:09A5   733 0001:09C0   734 0001:09C9   735 0001:09E4
   738 0001:09EE   739 0001:09F0   689 0001:0A01   694 0001:0A1C
   695 0001:0A25   701 0001:0A3D   702 0001:0A40   706 0001:0A48
   751 0001:0A4E     0 0001:0A55

Line numbers for midia.obj(midia.ASM) segment MIDI

   112 0005:04F0   113 0005:04F1   114 0005:04F2   115 0005:04F3
   117 0005:04F4   118 0005:04F7   121 0005:04F9   122 0005:0509
   123 0005:0519   125 0005:0529   126 0005:0539   127 0005:053C
   128 0005:0540   129 0005:0544   130 0005:0548   132 0005:0558
   133 0005:055B   134 0005:055F   135 0005:0563   136 0005:0567
   138 0005:0577   139 0005:057A   140 0005:057E   141 0005:0582
   142 0005:0586   144 0005:0596   145 0005:05A6   146 0005:05B6
   147 0005:05B9   148 0005:05BD   149 0005:05C1   150 0005:05C5
   152 0005:05D5   153 0005:05D8   154 0005:05DC   155 0005:05E0
   156 0005:05E4   158 0005:05F4   159 0005:05F7   160 0005:05FB
   162 0005:060B   163 0005:061B   164 0005:062B   165 0005:062E
   166 0005:0632   168 0005:0642   169 0005:0645   171 0005:0655
   173 0005:0665   175 0005:0666   176 0005:0667   177 0005:0668
   178 0005:0669   207 0005:066A   209 0005:067A   210 0005:067D
   211 0005:0682   213 0005:0684   215 0005:0694   216 0005:0699
   217 0005:069B   219 0005:069D   220 0005:06A2   224 0005:06A4
   250 0005:06A5   252 0005:06B5   253 0005:06B8   254 0005:06BD
   257 0005:06BF   259 0005:06CF   261 0005:06D4   262 0005:06D9
   266 0005:06DB   292 0005:06DC   294 0005:06EC   295 0005:06EF
   296 0005:06F3   298 0005:06F5   299 0005:06FA   301 0005:06FC
   303 0005:070C   304 0005:0711   305 0005:0713   307 0005:0715
   308 0005:071A   309 0005:071F   313 0005:0721   339 0005:0722
   341 0005:0732   342 0005:0735   343 0005:073A   345 0005:073C
   346 0005:0741   348 0005:0743   350 0005:0753   351 0005:0758
   353 0005:075D   354 0005:0762   358 0005:0764   373 0005:0765
   375 0005:0775   376 0005:077A   379 0005:077C   380 0005:077E
   381 0005:0781   382 0005:0784   385 0005:0787   386 0005:078C
   387 0005:078E   391 0005:0793   406 0005:0794   408 0005:07A4
   409 0005:07A9   411 0005:07AB   412 0005:07B0   414 0005:07B5
   417 0005:07B8   420 0005:07BD   425 0005:07C2

Line numbers for wavein.obj(wavein.c) segment WAVE

    31 0004:0000    34 0004:0006    35 0004:0012    37 0004:001A
    38 0004:0020    39 0004:0030    41 0004:0037    42 0004:0043
     0 0004:0047    52 0004:0048    56 0004:0051    57 0004:005B
    60 0004:0060    61 0004:0067    64 0004:006C    65 0004:0071
    68 0004:0076    69 0004:0080    71 0004:0088    73 0004:008D
    81 0004:009D    74 0004:00A9    77 0004:00C7    83 0004:00D5
    86 0004:00DA    87 0004:00DE     0 0004:00E5   100 0004:00E6
   108 0004:00E7   109 0004:00F0   110 0004:00F9   111 0004:010C
   112 0004:0111   113 0004:0116   114 0004:011E   115 0004:0124
   117 0004:012B     0 0004:012D   132 0004:012E   136 0004:0132
   137 0004:0137   138 0004:013C   139 0004:0146   140 0004:014F
   142 0004:0161   143 0004:017D     0 0004:0181   151 0004:0182
   155 0004:018E   156 0004:0198   157 0004:019D   158 0004:01B8
   159 0004:01BD   162 0004:01BF   163 0004:01DA   167 0004:01ED
   168 0004:01F3   169 0004:020E   172 0004:0213   304 0004:0216
   303 0004:023C   174 0004:0241   175 0004:025C   178 0004:0262
   179 0004:027D   183 0004:028C   198 0004:02A7   204 0004:0311
   208 0004:031A   209 0004:0323   210 0004:033E   215 0004:0344
   216 0004:0354   217 0004:0359   221 0004:035F   222 0004:0377
   223 0004:0385   224 0004:038B   225 0004:0397   226 0004:039F
   229 0004:03B5   232 0004:03C2   235 0004:03D6   200 0004:03E6
   240 0004:03EC   242 0004:0407   243 0004:0410   246 0004:0416
   250 0004:041B   253 0004:042A   256 0004:0432   257 0004:043B
   260 0004:0459   263 0004:045C   264 0004:0477   265 0004:049F
   266 0004:04D5   270 0004:04EE   273 0004:04F9   276 0004:0501
   277 0004:051C   281 0004:0524   282 0004:053F   286 0004:0547
   289 0004:0562   290 0004:0567   294 0004:056A   299 0004:0578
   300 0004:0593   309 0004:05A5     0 0004:05AD

Line numbers for waveout.obj(waveout.c) segment WAVE

    33 0004:05AE    37 0004:05B4    40 0004:05DB    42 0004:05E0
    43 0004:05E9    44 0004:05ED    45 0004:05EF    47 0004:05F3
    48 0004:05FB    49 0004:0601    50 0004:0607    51 0004:060D
    52 0004:0613    54 0004:0616    55 0004:061F    56 0004:062F
    58 0004:0636    59 0004:0642     0 0004:0645    74 0004:0646
    78 0004:064A    79 0004:064F    80 0004:0654    81 0004:065E
    82 0004:0667    83 0004:066F    85 0004:0681    86 0004:069D
     0 0004:06A1   102 0004:06A2   105 0004:06A6   106 0004:06AC
   108 0004:06B1   110 0004:06B7   111 0004:06C0   116 0004:06CE
   117 0004:06D0   118 0004:06D5   119 0004:06E3   122 0004:06FE
   123 0004:0702     0 0004:0707   131 0004:0708   135 0004:0714
   136 0004:071E   137 0004:0723   138 0004:073E   142 0004:0746
   143 0004:0761   147 0004:0770   148 0004:0776   149 0004:0791
   152 0004:0797   312 0004:079A   311 0004:07CE   154 0004:07D4
   155 0004:07EF   158 0004:07F5   159 0004:0810   163 0004:081F
   178 0004:083A   184 0004:08A4   188 0004:08AD   189 0004:08B6
   190 0004:08D1   195 0004:08D7   196 0004:08E7   197 0004:08EC
   201 0004:08F2   202 0004:090A   203 0004:0918   204 0004:091E
   205 0004:092A   206 0004:0932   209 0004:0948   212 0004:095C
   215 0004:0969   217 0004:0978   180 0004:097B   220 0004:0981
   222 0004:099C   226 0004:09A8   230 0004:09AD   233 0004:09BC
   236 0004:09C4   237 0004:09CD   240 0004:09EB   243 0004:09EE
   244 0004:0A09   245 0004:0A31   249 0004:0A67   252 0004:0AA4
   253 0004:0AB3   255 0004:0AB9   258 0004:0AE0   259 0004:0AEF
   263 0004:0AF5   266 0004:0B00   267 0004:0B05   268 0004:0B0A
   270 0004:0B0F   273 0004:0B12   274 0004:0B2D   275 0004:0B32
   276 0004:0B5C   279 0004:0B5F   280 0004:0B7A   281 0004:0B7F
   284 0004:0B82   287 0004:0B9D   288 0004:0BA2   290 0004:0BA5
   292 0004:0BCC   296 0004:0BD4   298 0004:0BDF   307 0004:0BE1
   308 0004:0BFC   301 0004:0C10   302 0004:0C2B   303 0004:0C34
   304 0004:0C39   317 0004:0C3D     0 0004:0C45

Line numbers for wavefix.obj(wavefix.c) segment _TEXT

    43 0001:0A56    46 0001:0A5A    49 0001:0A75    50 0001:0A85
    51 0001:0A98    52 0001:0AA0    53 0001:0AA2     0 0001:0AA3
    58 0001:0AA4    62 0001:0AAA    64 0001:0AC5    65 0001:0ACD
    66 0001:0AE2    82 0001:0AED    83 0001:0AF2    67 0001:0B0A
    68 0001:0B11    69 0001:0B1E    70 0001:0B20    73 0001:0B28
    74 0001:0B34    75 0001:0B44    76 0001:0B4C    85 0001:0B4E
     0 0001:0B51   106 0001:0B52   114 0001:0B58   115 0001:0B61
   118 0001:0B64   119 0001:0B70   121 0001:0B75   124 0001:0B89
   126 0001:0B92   128 0001:0B9B   129 0001:0BB6   130 0001:0BBD
   131 0001:0BD8   132 0001:0BE9   135 0001:0BF8   136 0001:0BFF
   137 0001:0C07   142 0001:0C16   143 0001:0C1D   144 0001:0C38
   145 0001:0C40   151 0001:0C43   152 0001:0C55   155 0001:0C5D
   160 0001:0C66   161 0001:0C9A   162 0001:0C9D   163 0001:0CA7
   164 0001:0CAA   168 0001:0CB7   169 0001:0CC3   171 0001:0CDE
   172 0001:0CEB   173 0001:0CF7   174 0001:0D12   176 0001:0D1E
   182 0001:0D40   183 0001:0D55   184 0001:0D60   185 0001:0D66
   186 0001:0D74   188 0001:0D7F   189 0001:0D81   190 0001:0D9C
   193 0001:0DA6   196 0001:0DB9   198 0001:0DBB   199 0001:0DC0
   200 0001:0DCD   201 0001:0DD6   202 0001:0DE5   206 0001:0DED
   217 0001:0DF4   218 0001:0E05   219 0001:0E14   221 0001:0E1D
   222 0001:0E24   223 0001:0E3F   224 0001:0E49   229 0001:0E5A
   208 0001:0E6D   209 0001:0E88   210 0001:0E90   231 0001:0E96
   232 0001:0EB0   234 0001:0EBE   238 0001:0EC4   239 0001:0ECB
   240 0001:0EE6   247 0001:0EEA   248 0001:0EF7   249 0001:0F04
   250 0001:0F0B   253 0001:0F11   254 0001:0F13   257 0001:0F1B
   258 0001:0F1E     0 0001:0F23   274 0001:0F24   287 0001:0F2B
   294 0001:0F32   295 0001:0F58     0 0001:0F5D   308 0001:0F5E
   311 0001:0F62   314 0001:0F7D   320 0001:0F88   321 0001:0F92
   326 0001:0F9C   327 0001:0FA9     0 0001:0FAD   348 0001:0FAE
   354 0001:0FB8   355 0001:0FBF   357 0001:0FC4   358 0001:0FC6
   360 0001:0FCE   362 0001:0FD7   363 0001:0FE9   364 0001:0FF8
   371 0001:1002   372 0001:1035   373 0001:1038   374 0001:1042
   375 0001:1044   376 0001:1050   379 0001:105A   380 0001:1066
   383 0001:1081   384 0001:1092   385 0001:1097   388 0001:109C
   391 0001:10A2   402 0001:10B2   403 0001:10C4   404 0001:10D3
   407 0001:10DD   393 0001:10ED   394 0001:1108   395 0001:1110
   409 0001:1116   410 0001:1118     0 0001:111D   423 0001:111E
   427 0001:1125   428 0001:112F   429 0001:1134   430 0001:1139
   436 0001:1143   437 0001:1150     0 0001:1155

Line numbers for wavea.obj(wavea.ASM) segment WAVE

   125 0004:0C46   127 0004:0C49   129 0004:0C63   130 0004:0C66
   136 0004:0C69   137 0004:0C6B   138 0004:0C6E   139 0004:0C71
   140 0004:0C73   146 0004:0C75   147 0004:0C76   148 0004:0C78
   149 0004:0C7D   150 0004:0C7E   151 0004:0C83   153 0004:0C84
   179 0004:0C8A   180 0004:0C8B   181 0004:0C8C   182 0004:0C8D
   184 0004:0C8E   186 0004:0C9E   187 0004:0CA0   188 0004:0CA2
   190 0004:0CA4   191 0004:0CA6   202 0004:0CAA   204 0004:0CAC
   205 0004:0CAE   206 0004:0CB0   208 0004:0CB2   209 0004:0CB4
   211 0004:0CB6   212 0004:0CB8   213 0004:0CBA   214 0004:0CBD
   215 0004:0CBE   216 0004:0CC0   217 0004:0CC2   219 0004:0CC3
   221 0004:0CC4   222 0004:0CC7   223 0004:0CC8   224 0004:0CCA
   225 0004:0CCC   227 0004:0CCD   228 0004:0CD0   229 0004:0CD4
   235 0004:0CD5   236 0004:0CD7   242 0004:0CD9   244 0004:0CE2
   245 0004:0CE4   247 0004:0CE9   248 0004:0CEC   249 0004:0CF1
   250 0004:0CF3   252 0004:0CF8   253 0004:0CFA   254 0004:0CFC
   255 0004:0CFE   257 0004:0D03   259 0004:0D0A   260 0004:0D0B
   261 0004:0D0C   262 0004:0D0D   263 0004:0D0E   264 0004:0D0F
   290 0004:0D10   292 0004:0D20   299 0004:0D3A   300 0004:0D3F
   301 0004:0D4F   302 0004:0D5F   303 0004:0D62   305 0004:0D64
   306 0004:0D74   310 0004:0D79   311 0004:0D7B   313 0004:0D7D
   314 0004:0D82   315 0004:0D84   316 0004:0D87   320 0004:0D8A
   346 0004:0D8B   348 0004:0D9B   349 0004:0D9E   350 0004:0DA2
   352 0004:0DA4   353 0004:0DA9   355 0004:0DAB   357 0004:0DBB
   358 0004:0DC0   359 0004:0DC2   361 0004:0DC4   362 0004:0DC9
   363 0004:0DCE   367 0004:0DD0   393 0004:0DD1   395 0004:0DE1
   396 0004:0DE4   397 0004:0DE9   399 0004:0DEB   400 0004:0DF0
   402 0004:0DF2   404 0004:0E02   405 0004:0E07   407 0004:0E0C
   408 0004:0E11   412 0004:0E13   438 0004:0E14   440 0004:0E24
   441 0004:0E27   442 0004:0E2B   444 0004:0E2D   445 0004:0E32
   447 0004:0E34   449 0004:0E44   450 0004:0E49   451 0004:0E4B
   453 0004:0E4D   454 0004:0E52   455 0004:0E57   459 0004:0E59
   485 0004:0E5A   487 0004:0E6A   488 0004:0E6D   489 0004:0E72
   491 0004:0E74   492 0004:0E79   494 0004:0E7B   496 0004:0E8B
   497 0004:0E90   499 0004:0E95   500 0004:0E9A   504 0004:0E9C
   532 0004:0E9D   534 0004:0EA2   540 0004:0EB2   541 0004:0EB5
   542 0004:0EB7   543 0004:0EBB   547 0004:0EBF   550 0004:0EC8
   551 0004:0ECC   552 0004:0ECE   553 0004:0ED0   557 0004:0ED2
   558 0004:0ED5   559 0004:0ED9   560 0004:0EDD   565 0004:0EE0
   566 0004:0EE4   567 0004:0EE8   571 0004:0EEA   572 0004:0EEE
   577 0004:0EF0   578 0004:0EF3   579 0004:0EF7   580 0004:0EFA
   586 0004:0EFE   587 0004:0F03   589 0004:0F05   590 0004:0F08
   598 0004:0F0B   599 0004:0F0E   600 0004:0F12   601 0004:0F14
   607 0004:0F16   609 0004:0F17   610 0004:0F19   611 0004:0F1D
   612 0004:0F21   613 0004:0F31   615 0004:0F39   617 0004:0F3A
   622 0004:0F4A   623 0004:0F4F   625 0004:0F51   627 0004:0F61
   628 0004:0F66   629 0004:0F6A   630 0004:0F6E   632 0004:0F70
   636 0004:0F74   638 0004:0F7B   652 0004:0F83   654 0004:0F85
   671 0004:0F95   672 0004:0F9A   673 0004:0F9C   677 0004:0F9E
   678 0004:0FA0   679 0004:0FA5   681 0004:0FA7   682 0004:0FAC
   683 0004:0FAE   685 0004:0FB0   686 0004:0FB2   687 0004:0FB4
   688 0004:0FB7   697 0004:0FB9   698 0004:0FC9   700 0004:0FE2
   701 0004:0FE7   702 0004:0FE9   703 0004:0FEC   707 0004:0FEF
   711 0004:0FF0   727 0004:0FF3   734 0004:1003   735 0004:1008
   737 0004:100D   752 0004:100E   754 0004:101E   755 0004:1023
   762 0004:1025   764 0004:102E   765 0004:1033   769 0004:1036
   784 0004:1037   786 0004:1047   787 0004:104C   789 0004:104E
   791 0004:1053   792 0004:1058   798 0004:1061   799 0004:1066
   800 0004:1069   804 0004:106C   819 0004:106D   821 0004:107D
   822 0004:1082   828 0004:1084   829 0004:1086   830 0004:108B
   832 0004:1090   839 0004:1095   840 0004:1098   844 0004:109D

Line numbers for sndblst.obj(sndblst.ASM) segment _TEXT

   116 0001:1156   117 0001:1157   140 0001:1158   142 0001:1171
   143 0001:1172   145 0001:1173   146 0001:1177   147 0001:117A
   149 0001:117D   150 0001:117E   151 0001:1180   153 0001:1182
   156 0001:1184   157 0001:1185   160 0001:1188   161 0001:118B
   162 0001:118C   165 0001:118D   166 0001:118E   168 0001:118F
   192 0001:1190   194 0001:11A9   195 0001:11AA   197 0001:11AB
   199 0001:11AC   200 0001:11B0   202 0001:11B3   203 0001:11B5
   205 0001:11B7   206 0001:11B8   207 0001:11BA   209 0001:11BC
   210 0001:11BE   211 0001:11C0   213 0001:11C2   214 0001:11C3
   215 0001:11C4   218 0001:11C7   219 0001:11C8   221 0001:11C9
   224 0001:11CA   225 0001:11CB   226 0001:11CC   253 0001:11CD
   255 0001:11DD   257 0001:11DE   258 0001:11E1   259 0001:11E3
   261 0001:11E5   262 0001:11E6   263 0001:11E7   281 0001:11E8
   283 0001:11F8   284 0001:11F9   286 0001:11FE   287 0001:1200
   289 0001:1205   290 0001:120A   291 0001:120B   325 0001:1214
   326 0001:1215   327 0001:1216   328 0001:1219   331 0001:121B
   332 0001:121E   333 0001:1220   341 0001:1222   342 0001:1227
   344 0001:1228   345 0001:1229   347 0001:122A   349 0001:123A
   350 0001:123C   351 0001:123F   352 0001:1241   354 0001:1246
   364 0001:1256   365 0001:1257   367 0001:1258   368 0001:1259
   370 0001:125E   371 0001:1261   372 0001:1263   374 0001:1265
   378 0001:1267   379 0001:1269   381 0001:126B   382 0001:126C
   385 0001:126D   404 0001:126E   406 0001:127E   407 0001:127F
   408 0001:1283   410 0001:1287   411 0001:1288   412 0001:128A
   414 0001:128D   416 0001:128E   441 0001:1291   442 0001:1295
   443 0001:1299   444 0001:129C   448 0001:129E   449 0001:129F
   450 0001:12A1   452 0001:12A3   453 0001:12A6   455 0001:12A7
   456 0001:12AB   457 0001:12AD   458 0001:12AE   468 0001:12B0
   472 0001:12C0   501 0001:12C1   502 0001:12C5   503 0001:12C8
   510 0001:12C9   511 0001:12E3   512 0001:12E8   514 0001:12EB
   515 0001:12F0   517 0001:12F2   521 0001:12F5   523 0001:1300
   552 0001:1301   553 0001:1305   554 0001:1308   561 0001:1309
   562 0001:130B   563 0001:130F   571 0001:1311   572 0001:1314
   573 0001:1318   582 0001:131A   583 0001:132A   584 0001:132F
   585 0001:1334   594 0001:1336   596 0001:1350   598 0001:1355
   600 0001:1358   601 0001:135D   603 0001:135F   607 0001:1362
   609 0001:136F   610 0001:1371   617 0001:1373   622 0001:1377
   643 0001:1378   645 0001:137B   647 0001:138B   648 0001:1390
   657 0001:1392   658 0001:1397   660 0001:1399   664 0001:13A2
   665 0001:13A4   666 0001:13A9   667 0001:13AC   668 0001:13BC
   670 0001:13C1   671 0001:13C6   673 0001:13C8   675 0001:13CF
   691 0001:13D1   692 0001:13D5   693 0001:13D7   697 0001:13D9
   698 0001:13DC   699 0001:13EC   703 0001:13F1   705 0001:1401
   707 0001:1403   731 0001:1409   733 0001:140F   734 0001:1412
   735 0001:1415   737 0001:1417   738 0001:1418   740 0001:141B
   741 0001:141D   742 0001:141F   743 0001:1421   744 0001:1423
   749 0001:1425   750 0001:1427   751 0001:1429   752 0001:142B
   753 0001:142D   755 0001:142F   756 0001:1431   758 0001:1433
   759 0001:1435   760 0001:1437   761 0001:143A   762 0001:143C
   766 0001:143E   767 0001:1440   769 0001:1442   793 0001:144B
   795 0001:1451   797 0001:1452   798 0001:1455   799 0001:1458
   801 0001:145B   802 0001:145D   803 0001:145F   804 0001:1461
   805 0001:1463   809 0001:1465   810 0001:1467   811 0001:1469
   812 0001:146B   813 0001:146D   815 0001:146F   816 0001:1471
   818 0001:1473   819 0001:1475   820 0001:1477   821 0001:147A
   822 0001:147C   826 0001:147E   827 0001:1480   829 0001:1482
   849 0001:148B   851 0001:148F   853 0001:1490   854 0001:1493
   855 0001:1496   857 0001:1498   858 0001:149A   859 0001:149D
   860 0001:149F   861 0001:14A1   865 0001:14A3   885 0001:14AA
   886 0001:14AD

Line numbers for inita.obj(inita.ASM) segment INIT

   172 0002:0014   173 0002:0016   174 0002:0017   175 0002:0019
   176 0002:001B   177 0002:001D   178 0002:001F   179 0002:0021
   180 0002:0026   181 0002:0028   185 0002:0029   187 0002:002B
   209 0002:002C   211 0002:0032   213 0002:0033   214 0002:0036
   215 0002:0038   216 0002:003A   218 0002:003C   221 0002:003E
   222 0002:0041   224 0002:0042   226 0002:0045   248 0002:0049
   249 0002:004C   250 0002:004D   252 0002:004E   253 0002:0051
   254 0002:0054   257 0002:0057   258 0002:0058   259 0002:005A
   260 0002:005C   266 0002:005E   267 0002:005F   270 0002:0062
   271 0002:0065   272 0002:0066   275 0002:0067   276 0002:0068
   278 0002:0069   303 0002:006F   304 0002:0075   305 0002:0078
   307 0002:007B   308 0002:007D   312 0002:007F   313 0002:0080
   314 0002:0082   316 0002:0084   317 0002:0086   318 0002:0088
   320 0002:008A   321 0002:008B   325 0002:008E   326 0002:0091
   328 0002:0092   332 0002:0093   349 0002:009C   351 0002:009E
   352 0002:00A0   353 0002:00A2   354 0002:00A5   355 0002:00A8
   356 0002:00AA   357 0002:00AC   358 0002:00AE   359 0002:00B0
   360 0002:00B4   363 0002:00B8   396 0002:00BB   397 0002:00BE
   398 0002:00C2   399 0002:00C3   401 0002:00C5   402 0002:00C8
   415 0002:00CC   416 0002:00DC   420 0002:00DD   450 0002:00DE
   451 0002:00E1   452 0002:00E5   454 0002:00E9   456 0002:00F9
   492 0002:00FA   494 0002:00FC   496 0002:010C   497 0002:010F
   498 0002:0111   500 0002:0113   501 0002:0116   511 0002:0119
   512 0002:011C   513 0002:0120   515 0002:0122   523 0002:0125
   524 0002:0128   525 0002:012B   527 0002:012D   528 0002:0130
   540 0002:0133   541 0002:0138   542 0002:013A   544 0002:013C
   545 0002:013E   547 0002:0140   548 0002:0145   549 0002:0147
   550 0002:0149   551 0002:014B   552 0002:014D   553 0002:014F
   554 0002:0152   558 0002:0154   560 0002:0157   562 0002:0167
   567 0002:0169   609 0002:016C   610 0002:0172   611 0002:0174
   613 0002:0177   614 0002:017A   615 0002:017D   616 0002:0180
   621 0002:0190   622 0002:0195   625 0002:0197   626 0002:019A
   627 0002:019D   628 0002:01A1   629 0002:01A3   630 0002:01A7
   632 0002:01AA   633 0002:01AD   634 0002:01B0   635 0002:01B4
   637 0002:01B6   638 0002:01B8   646 0002:01BA   647 0002:01BD
   648 0002:01C1   655 0002:01C3   656 0002:01C6   657 0002:01C9
   658 0002:01CC   663 0002:01D0   664 0002:01D6   665 0002:01D8
   666 0002:01DA   670 0002:01DD   671 0002:01E6   672 0002:01E8
   676 0002:01EA   677 0002:01F3   678 0002:01F5   686 0002:01F7
   687 0002:01FB   688 0002:01FF   695 0002:0201   696 0002:0202
   697 0002:0205   698 0002:0208   699 0002:020B   700 0002:020F
   703 0002:0210   704 0002:0213   705 0002:0223   732 0002:0229
   733 0002:022C   734 0002:0230   736 0002:0232   737 0002:0235
   750 0002:0237   751 0002:0238   752 0002:023B   768 0002:023D
   769 0002:0240   770 0002:0243   771 0002:0245   773 0002:0246
   774 0002:0249   776 0002:024B   777 0002:024D   778 0002:024E
   783 0002:0251   786 0002:0254   787 0002:0258   789 0002:025A
   790 0002:025C   793 0002:025E   796 0002:0260   797 0002:0263
   798 0002:0265   806 0002:0267   807 0002:026E   809 0002:0270
   810 0002:0274   812 0002:0276   813 0002:0278   814 0002:027C
   816 0002:027E   823 0002:0280   824 0002:0287   826 0002:0289
   827 0002:028D   829 0002:028F   830 0002:0291   831 0002:0295
   833 0002:0297   834 0002:0299   835 0002:029B   837 0002:029D
   838 0002:02AD   847 0002:02B0   848 0002:02B2   854 0002:02B6
   883 0002:02BC   888 0002:02C1   889 0002:02C4   890 0002:02C6
   891 0002:02C8   892 0002:02CA   897 0002:02CC   898 0002:02CF
   901 0002:02D2   902 0002:02D4   910 0002:02D7   911 0002:02DC
   913 0002:02DE   915 0002:02E4   916 0002:02E6   917 0002:02E9
   919 0002:02EC   921 0002:02F5   923 0002:02FB   924 0002:02FE
   926 0002:0302   928 0002:0309   929 0002:0311   933 0002:0312
   934 0002:0315   935 0002:0318   936 0002:031B   937 0002:031F
   940 0002:0321   941 0002:0322   942 0002:032A   944 0002:032B
   946 0002:032E   947 0002:0335   952 0002:0337   953 0002:0338
   954 0002:033A   955 0002:033E   956 0002:0340   957 0002:0341
   959 0002:0343   960 0002:0345   961 0002:0349   971 0002:034B
   972 0002:034C   973 0002:0355   974 0002:0357   975 0002:0359
   976 0002:035B   978 0002:035D   979 0002:035F   981 0002:0361
   983 0002:0371   984 0002:0373   986 0002:0375   987 0002:037C
   992 0002:037D   993 0002:0380   994 0002:0381   998 0002:0384
  1000 0002:0386  1001 0002:038A  1004 0002:038C  1005 0002:039C
  1006 0002:039E  1009 0002:03A0  1010 0002:03B0  1013 0002:03B2
  1014 0002:03C2  1017 0002:03C4  1023 0002:03D4  1024 0002:03D5
  1026 0002:03DC  1027 0002:03DF  1029 0002:03EB  1031 0002:03F1
  1039 0002:03F3  1048 0002:03FB  1050 0002:03FC  1051 0002:03FF
  1054 0002:0400  1056 0002:0404  1058 0002:0414  1059 0002:0418
  1061 0002:041C  1062 0002:041D  1063 0002:041F  1065 0002:0422
  1066 0002:0423  1095 0002:0426  1096 0002:0429  1097 0002:042B
  1126 0002:0431  1127 0002:0434  1133 0002:044E  1134 0002:0451
  1135 0002:0454  1136 0002:0457  1137 0002:045A  1138 0002:045D
  1144 0002:0460  1145 0002:0462  1152 0002:0464  1153 0002:0466
  1154 0002:0469  1155 0002:046B  1163 0002:046D  1164 0002:046F
  1165 0002:0471  1169 0002:0473  1178 0002:0476  1179 0002:0479
  1180 0002:047B  1181 0002:047D  1182 0002:047F  1184 0002:0482
  1185 0002:0484  1186 0002:0486  1187 0002:0488  1189 0002:048B
  1190 0002:048D  1191 0002:048F  1192 0002:0491  1194 0002:0494
  1198 0002:0497  1199 0002:049A  1206 0002:049E  1207 0002:04A1
  1208 0002:04B1  1209 0002:04B4  1210 0002:04C4  1211 0002:04C7
  1212 0002:04D7  1213 0002:04DA  1215 0002:04EA  1217 0002:04ED
  1261 0002:04F3  1263 0002:04F6  1270 0002:0506  1271 0002:0509
  1272 0002:050C  1274 0002:050E  1275 0002:0510  1279 0002:0513
  1280 0002:0515  1281 0002:0519  1283 0002:0523  1284 0002:0526
  1285 0002:0528  1292 0002:052A  1293 0002:0530  1294 0002:0532
  1296 0002:0534  1297 0002:0537  1303 0002:0539  1305 0002:053C
  1306 0002:053F  1307 0002:0541  1309 0002:054B  1310 0002:054E
  1311 0002:0550  1317 0002:0552  1318 0002:0558  1319 0002:055A
  1321 0002:055C  1322 0002:055E  1323 0002:0560  1325 0002:0564
  1326 0002:0568  1327 0002:056A  1328 0002:056C  1336 0002:056F
  1337 0002:0572  1338 0002:0574  1346 0002:0577  1347 0002:057B
  1350 0002:057E  1351 0002:0582  1352 0002:0586  1354 0002:0596
  1358 0002:0599  1376 0002:059F  1378 0002:05AF  1379 0002:05B2
  1380 0002:05B4  1382 0002:05B6  1383 0002:05BC  1384 0002:05BE
  1385 0002:05C1  1386 0002:05C4  1387 0002:05C7  1391 0002:05CA
  1393 0002:05CB  1416 0002:05CC  1418 0002:05CF  1420 0002:05DF
  1421 0002:05E4  1422 0002:05E6  1424 0002:05E8  1425 0002:05ED
  1426 0002:05EF  1428 0002:05F1  1429 0002:05F5  1435 0002:05F7
  1436 0002:05FA  1443 0002:05FC  1444 0002:05FE  1445 0002:0603
  1447 0002:0605  1448 0002:060A  1450 0002:060C  1451 0002:060E
  1452 0002:0613  1454 0002:0615  1458 0002:0617  1459 0002:061A
  1461 0002:062A  1462 0002:062F  1463 0002:0631  1467 0002:0633
  1471 0002:0636  1475 0002:063B  1498 0002:0641  1502 0002:0644
  1503 0002:0647  1504 0002:064A  1505 0002:064D  1506 0002:064F
  1507 0002:0652  1515 0002:0655  1516 0002:0657  1518 0002:0659
  1519 0002:065C  1520 0002:065E  1521 0002:0660  1528 0002:0662
  1530 0002:0664  1531 0002:066D  1532 0002:066E  1533 0002:0670
  1534 0002:0672  1535 0002:0674  1536 0002:0676  1537 0002:0678
  1539 0002:0679  1544 0002:0680  1545 0002:0682  1546 0002:0684
  1547 0002:0686  1548 0002:0688  1572 0002:068E  1578 0002:0691
  1579 0002:0694  1580 0002:0696  1581 0002:0698  1583 0002:069A
  1587 0002:069C  1593 0002:069E  1594 0002:06A0  1596 0002:06A2
  1597 0002:06A3  1603 0002:06A4  1604 0002:06A6  1605 0002:06A7
  1607 0002:06AA  1608 0002:06AC  1610 0002:06AD  1611 0002:06AE
  1613 0002:06AF  1628 0002:06B5  1634 0002:06C5  1636 0002:06C7
  1637 0002:06CD  1639 0002:06CF  1640 0002:06D5  1642 0002:06D7
  1643 0002:06DC  1647 0002:06E1  1648 0002:06E6  1652 0002:06EB
  1667 0002:06EC  1669 0002:06FC  1670 0002:0702  1672 0002:0704
  1674 0002:0714  1675 0002:0719  1676 0002:071B  1678 0002:071D
  1679 0002:0723  1681 0002:0725  1685 0002:072A  1686 0002:072F
  1690 0002:0731  1706 0002:0732  1712 0002:0742  1714 0002:0744
  1715 0002:074A  1717 0002:074C  1718 0002:0751  1720 0002:0753
  1721 0002:0758  1725 0002:075D  1726 0002:0762  1730 0002:0767
  1745 0002:0768  1747 0002:0778  1748 0002:077E  1750 0002:0780
  1752 0002:0790  1753 0002:0795  1754 0002:0797  1756 0002:0799
  1757 0002:079F  1759 0002:07A1  1763 0002:07A6  1764 0002:07AB
  1768 0002:07AD  1783 0002:07AE  1789 0002:07BE  1791 0002:07C0
  1792 0002:07C6  1794 0002:07C8  1795 0002:07CE  1797 0002:07D0
  1798 0002:07D5  1802 0002:07DA  1803 0002:07DF  1807 0002:07E4
  1822 0002:07E5  1824 0002:07F5  1825 0002:07FB  1827 0002:07FD
  1829 0002:080D  1830 0002:0812  1831 0002:0814  1833 0002:0816
  1834 0002:081C  1835 0002:081E  1839 0002:0823  1840 0002:0828
  1844 0002:082A  1859 0002:082B  1865 0002:083B  1866 0002:083D
  1867 0002:0843  1869 0002:0845  1870 0002:084A  1874 0002:084F
  1889 0002:0850  1891 0002:0860  1892 0002:0862  1893 0002:0868
  1895 0002:086A  1897 0002:087A  1898 0002:087F  1899 0002:0881
  1901 0002:0883  1902 0002:0888  1906 0002:088A  1923 0002:088B
  1925 0002:089B  1926 0002:089E  1927 0002:089F  1928 0002:08A3
  1929 0002:08A6  1934 0002:08A8  1935 0002:08AB  1940 0002:08AE
  1941 0002:08B3  1943 0002:08B5  1944 0002:08BB  1945 0002:08BD
  1952 0002:08BF  1953 0002:08C4  1954 0002:08C6  1960 0002:08C8
  1961 0002:08CB  1962 0002:08CE  1963 0002:08D2  1965 0002:08D8
  1966 0002:08DC  1972 0002:08DF  1973 0002:08E8  1979 0002:08EB
  1980 0002:08EE  1981 0002:08F1  1982 0002:08F4  1987 0002:08F7
  1988 0002:0907  1989 0002:090B  1993 0002:090D  2010 0002:090E
  2012 0002:091E  2013 0002:0923  2020 0002:0925  2021 0002:0928
  2022 0002:092B  2023 0002:092E  2029 0002:0931  2037 0002:093C
  2039 0002:0941  2040 0002:0945  2041 0002:0948  2043 0002:094C
  2044 0002:0952  2048 0002:0955  2049 0002:0957  2051 0002:095A

Line numbers for initc.obj(initc.c) segment INIT

    88 0002:095C    95 0002:0961    97 0002:098B    98 0002:0991
   100 0002:099B   101 0002:09A9   103 0002:09AF    97 0002:09BD
   105 0002:09C8   106 0002:09CA     0 0002:0A47   116 0002:0A48
   122 0002:0A49   136 0002:0A58   134 0002:0A7D   135 0002:0A80
   138 0002:0A99   139 0002:0A9B     0 0002:0A9D   150 0002:0A9E
   155 0002:0AA2   171 0002:0ABA   168 0002:0ADB   169 0002:0ADF
   170 0002:0AF8   164 0002:0AFA   173 0002:0AFE   174 0002:0B01
     0 0002:0B03   185 0002:0B04   192 0002:0B08   200 0002:0B20
   199 0002:0B2D   202 0002:0B31   203 0002:0B34     0 0002:0B35
   211 0002:0B36   213 0002:0B3B     0 0002:0B41   219 0002:0B42
   224 0002:0B46   225 0002:0B4E   226 0002:0B63   228 0002:0B77
     0 0002:0B7B   231 0002:0B7C   234 0002:0B80   235 0002:0B87
   236 0002:0B9D   237 0002:0BB1   240 0002:0BB7   241 0002:0BBA
     0 0002:0BBB   257 0002:0BBC   267 0002:0BC1   270 0002:0BD3
   273 0002:0BEA   277 0002:0BF0   278 0002:0BFD   279 0002:0C16
   280 0002:0C19   284 0002:0C1B   289 0002:0C24   290 0002:0C29
   291 0002:0C2F   294 0002:0C35   308 0002:0C4B   312 0002:0C5D
   313 0002:0C63   319 0002:0C68   320 0002:0C6E   334 0002:0C73
   325 0002:0C95   326 0002:0C99   338 0002:0C9B     0 0002:0CA1

Line numbers for config.obj(config.c) segment INIT

    23 0002:0CA2    24 0002:0CA5    32 0002:0CA8    31 0002:0CC9
    25 0002:0CCE    26 0002:0CD3    27 0002:0CD8    28 0002:0CDD
    29 0002:0CE2    30 0002:0CE7    33 0002:0CEA     0 0002:0CF3
    36 0002:0CF4    37 0002:0CF7    45 0002:0CFA    44 0002:0D16
    38 0002:0D1B    39 0002:0D20    40 0002:0D25    41 0002:0D2A
    42 0002:0D2F    43 0002:0D34    46 0002:0D37     0 0002:0D3B
    49 0002:0D3C    50 0002:0D3F    57 0002:0D44    56 0002:0D57
    54 0002:0D61    55 0002:0D66    52 0002:0D6B    58 0002:0D6E
     0 0002:0D71    61 0002:0D72    62 0002:0D75    68 0002:0D78
    67 0002:0D86    63 0002:0D8A    64 0002:0D8E    65 0002:0D92
    66 0002:0D96    69 0002:0D98     0 0002:0D9B    74 0002:0D9C
    77 0002:0DA0    78 0002:0DB5    79 0002:0DCB     0 0002:0DCF
    85 0002:0DD0     0 0002:0DE9   100 0002:0DEA   101 0002:0DED
   102 0002:0E02     0 0002:0E05   115 0002:0E06   116 0002:0E0F
   117 0002:0E14   120 0002:0E18   121 0002:0E1B   122 0002:0E2F
   126 0002:0E36   127 0002:0E39   128 0002:0E4D   132 0002:0E54
   133 0002:0E5E     0 0002:0E63   155 0002:0E64   163 0002:0E70
   252 0002:0E73   251 0002:0E7B   165 0002:0E80   168 0002:0E86
   169 0002:0E94   171 0002:0EA3   172 0002:0EB4   175 0002:0EC1
   176 0002:0EC4   247 0002:0EC6   179 0002:0EF2   180 0002:0EFD
   184 0002:0F03   188 0002:0F10   190 0002:0F27   191 0002:0F2E
   195 0002:0F31   198 0002:0F3B   204 0002:0F42   205 0002:0F48
   210 0002:0F56   213 0002:0F5E   214 0002:0F70   215 0002:0F8C
   216 0002:0FA3   219 0002:0FBF   222 0002:0FD6   223 0002:0FE0
   220 0002:0FE2   242 0002:0FE9   235 0002:0FF4   254 0002:1003
   255 0002:1006     0 0002:100D

Line numbers for drvproc.obj(drvproc.c) segment COMMON

    55 0003:0000    56 0003:000C   223 0003:000E   222 0003:0030
    58 0003:004E   137 0003:006A   152 0003:0085    94 0003:0095
   115 0003:00AE   155 0003:00C9   168 0003:00E4   169 0003:00E9
    77 0003:00EB   194 0003:0103   210 0003:011E   172 0003:012D
   191 0003:0148   213 0003:014D   214 0003:0168   217 0003:016A
   218 0003:0185   219 0003:018A   224 0003:018F     0 0003:0193

Line numbers for commona.obj(commona.ASM) segment COMMON

    90 0003:0194    91 0003:0195    92 0003:0196    93 0003:0197
    94 0003:0198    95 0003:0199    96 0003:019C    97 0003:019E
    99 0003:019F   100 0003:01A0   101 0003:01A1   120 0003:01A2
   121 0003:01A3   123 0003:01A4   124 0003:01A5   125 0003:01A8
   126 0003:01AA   128 0003:01AB   129 0003:01AC   130 0003:01AD
   147 0003:01AE   149 0003:01AF   154 0003:01BF   155 0003:01C1
   159 0003:01C6   161 0003:01C7   177 0003:01C8   179 0003:01C9
   184 0003:01D9   185 0003:01DB   189 0003:01E0   191 0003:01E1
   219 0003:01E2   220 0003:01E4   221 0003:01E8   223 0003:01EA
   224 0003:01ED   225 0003:01F1   234 0003:01F3   235 0003:01F6
   236 0003:01F9   237 0003:01FC   239 0003:0200   240 0003:0203
   248 0003:0205   249 0003:0208   251 0003:020A   252 0003:020F
   256 0003:0211   260 0003:0215   288 0003:0216   290 0003:022F
   291 0003:0231   292 0003:0235   294 0003:0237   295 0003:023A
   296 0003:023E   305 0003:0240   306 0003:0243   307 0003:0246
   308 0003:0249   312 0003:024D   330 0003:024E   332 0003:025E
   334 0003:0277   335 0003:027B   336 0003:027E   337 0003:0280
   341 0003:0281   342 0003:0284   344 0003:0286   345 0003:0288
   349 0003:0289   352 0003:028C   353 0003:0291   355 0003:0293
   356 0003:0295   359 0003:0297   360 0003:0299   361 0003:029C
   365 0003:029F   368 0003:02A1   395 0003:02A2   397 0003:02A8
   399 0003:02A9   400 0003:02AC   401 0003:02AF   403 0003:02B2
   404 0003:02B4   405 0003:02B6   406 0003:02B8   408 0003:02BA