
 VDDEGA

 Start         Length     Name                   Class
 0001:00000000 000006414H _LTEXT                 CODE 32-bit
 0001:00006414 000004258H _LDATA                 CODE 32-bit
 0002:00000000 00000047CH _ITEXT                 ICODE 32-bit
 0002:0000047C 000000244H _IDATA                 ICODE 32-bit
 0003:00000000 000000000H _TEXT                  PCODE 32-bit
 0003:00000000 000000000H _DATA                  PCODE 32-bit
 0003:00000000 000000058H _RCODE                 RCODE 16-bit

 Origin   Group
 0002:0   _IGROUP
 0001:0   _LGROUP
 0003:0   _PGROUP
 0000:0   FLAT

 Address       Export                  Alias

 0001:0000644C VDD_DDB                 VDD_DDB

  Address         Publics by Name

 0001:00006448       $VDD_Check_Update_Soon
 0001:0000641C       $VDD_Get_GrabRtn
 0001:00006428       $VDD_Get_ModTime
 0001:00006414       $VDD_Get_Version
 0001:00006420       $VDD_Hide_Cursor
 0001:00006438       $VDD_Msg_BakColor
 0001:00006430       $VDD_Msg_ClrScrn
 0001:00006434       $VDD_Msg_ForColor
 0001:00006440       $VDD_Msg_SetCursPos
 0001:0000643C       $VDD_Msg_TextOut
 0001:00006418       $VDD_PIF_State
 0001:00006444       $VDD_Query_Access
 0001:0000642C       $VDD_Set_HCurTrk
 0001:00006424       $VDD_Set_VMType
 0001:00005EED       @VDD_Check_Update_Soon
 0001:00005D3D       @VDD_Get_GrabRtn
 0001:00005EAC       @VDD_Get_ModTime
 0001:00005802       @VDD_Get_Version
 0001:00005D5D       @VDD_Hide_Cursor
 0001:00005ABE       @VDD_Msg_BakColor
 0001:0000590F       @VDD_Msg_ClrScrn
 0001:00005A3F       @VDD_Msg_ForColor
 0001:00005C4A       @VDD_Msg_SetCursPos
 0001:00005B40       @VDD_Msg_TextOut
 0001:00005CE6       @VDD_PIF_State
 0001:00005DCA       @VDD_Query_Access
 0001:00005D17       @VDD_Set_HCurTrk
 0001:00005E3A       @VDD_Set_VMType
 0001:00001E36       @VDD_VMIdle
 0001:0000289F       ConvertToScroll
 0001:000028FC       FoundScrollRect
 0000:00000040  Abs  Seq_Rtn_Off
 0001:00002583       Setup_Start_Count
 0001:00009C27       VDD_2EGA_Start
 0002:00000696       VDD_2nd_Ini
 0001:00001263       VDD_Adj_Msk
 0001:000019E8       VDD_Alloc_PShdw
 0001:00001F69       VDD_Attach2
 0001:00003E41       VDD_Backgrnd_Event
 0001:0000582E       VDD_Begin_Msg_Mode
 0001:00003F97       VDD_Cancel_Restore
 0001:00004267       VDD_Cancel_Restore2
 0001:00007398       VDD_CB_Off
 0001:000009EF       VDD_CheckMmgrCallOK
 0001:00006143       VDD_Clear_Mod
 0001:0000480C       VDD_Clear_RAM
 0001:00001EF0       VDD_Clr_VM_Time_Out
 0001:0000186E       VDD_CMap_PShdw
 0001:00000000       VDD_Control
 0001:00004450       VDD_CopyTextPages
 0001:000038EF       VDD_CRTC_PChg
 0001:0000644C       VDD_DDB
 0001:00001AAE       VDD_Dealloc_PShdw
 0001:00000447       VDD_DebugQuery
 0001:00001F0A       VDD_Detach
 0001:00001FA5       VDD_Detach2
 0002:00000204       VDD_Device_Init
 0001:00003F7B       VDD_Dont_Restore
 0001:00003F66       VDD_Do_Restore
 0001:0000587C       VDD_End_Msg_Mode
 0001:000041A2       VDD_FGrnd_Notify
 0001:00006484       VDD_Focus_VM
 0001:00006286       VDD_Free_Grab
 0001:00006296       VDD_Free_Mem
 0001:00002B79       VDD_Get_EGA_Posn
 0001:000061F0       VDD_Get_GrbMem
 0001:00005FC8       VDD_Get_GrbState
 0001:00005816       VDD_Get_GrbVersion
 0001:00006194       VDD_Get_Mem
 0001:00006053       VDD_Get_Mod
 0001:00002AF2       VDD_Get_Mode
 0001:00005FD3       VDD_Get_State
 0001:00004FCF       VDD_Global_Restore
 0001:0000433F       VDD_Grab
 0001:000043F6       VDD_GrabTextMode
 0001:00009CD0       VDD_Grb_MskTab
 0001:00005F7D       VDD_Grb_Version
 0001:00003C58       VDD_I10_Mode_Change_End
 0001:00003B97       VDD_I10_Mode_Change_Start
 0001:00003B79       VDD_I10_Mode_Switch
 0001:00003C44       VDD_I10_Mode_Sw_Done
 0001:000073A4       VDD_I10_OldVector
 0001:000073AC       VDD_I2F_Next_CS
 0001:000073B0       VDD_I2F_Next_EIP
 0001:000073A0       VDD_Initial_Text_Rows
 0001:00003964       VDD_Int_10
 0001:00003CAF       VDD_Int_10_PM
 0001:00003D6B       VDD_Int_2F
 0002:00000464       VDD_IO_Init
 0001:00002BA0       VDD_IO_SetTrap
 0002:000004F0       VDD_IO_Table
 0001:00009C1F       VDD_Latch_Addr
 0001:000018BB       VDD_Map_PShdw
 0001:00000C84       VDD_Mem_ACopy
 0001:00000A07       VDD_Mem_AMain
 0001:000016C4       VDD_Mem_CalcPage
 0001:000012CA       VDD_Mem_Chg
 0001:00001287       VDD_Mem_ChkPag
 0001:00000DD8       VDD_Mem_DCopy
 0001:00000E1A       VDD_Mem_Disable
 0001:00000D69       VDD_Mem_DMain
 0001:000017AB       VDD_Mem_I10Done
 0001:00006A48       VDD_Mem_Ini_Tab
 0001:00006A8C       VDD_Mem_Ini_Tab2
 0001:000010E5       VDD_Mem_MakeCopy
 0001:000016A1       VDD_Mem_MapNull
 0001:00001213       VDD_Mem_ModPag
 0001:00001736       VDD_Mem_Null
 0001:00000EA5       VDD_Mem_Physical
 0001:00000F37       VDD_Mem_Physical2
 0001:00001B2D       VDD_Mem_QPShdw
 0001:000014A6       VDD_Mem_Remap
 0001:00001407       VDD_Mem_Test_256k
 0001:0000105B       VDD_Mem_Update
 0001:00001186       VDD_Mem_UpdOff
 0001:0000142E       VDD_Mem_Valid
 0001:00000834       VDD_Mem_VMCreate
 0001:000009D8       VDD_Mem_VMDestroy
 0001:000008A4       VDD_Mem_VMInit
 0001:0000092F       VDD_Mem_VMSetTyp
 0001:0000630F       VDD_Message
 0001:00006FDC       VDD_Mod_MskTab
 0001:0000702C       VDD_Mod_MskTab2
 0001:0000250A       VDD_Mod_Text
 0002:000006A2       VDD_Mono_Text_Ini
 0001:00001631       VDD_MR_MapIt
 0001:00004A24       VDD_MsgRestFontAndClear
 0001:00004A76       VDD_MsgSaveFont
 0001:000063F8       VDD_Msg_CannotGrab
 0001:00006347       VDD_Msg_Exclusive
 0001:000059A7       VDD_Msg_InitScreen
 0001:000063D3       VDD_Msg_NoCopyMem
 0001:00006389       VDD_Msg_NoFGrnd
 0001:000063AE       VDD_Msg_NoMainMem
 0001:00006368       VDD_Msg_NoSupMode
 0001:00006326       VDD_Msg_NotWindow
 0001:000078D0       VDD_Msg_Pseudo_CB
 0001:000078CC       VDD_Msg_Pseudo_VM
 0001:0000A1AC       VDD_Msg_VM
 0001:00004F08       VDD_OutC_Ctrlr
 0001:00001B88       VDD_PFault
 0001:00009C23       VDD_Phys2EGA
 0001:00009C1B       VDD_PhysA0000
 0001:00005F02       VDD_PM_API
 0001:00003D44       VDD_PM_Int_2F
 0001:00005020       VDD_Pre_SR
 0001:00006958       VDD_PT_Buff
 0001:00000BC4       VDD_ReSet_VPH
 0001:00009C17       VDD_Rest2_Event_Handle
 0001:00004AA1       VDD_RestCRTC
 0001:000052D0       VDD_RestCtlr
 0001:00004F44       VDD_RestIndx
 0001:00005142       VDD_RestMsgStt
 0001:00003EC0       VDD_Restore
 0001:00004240       VDD_Restore2
 0001:0000427E       VDD_Restore2_Event
 0001:00003FB4       VDD_Restore_Event
 0001:00005237       VDD_Restore_Latches
 0001:00004865       VDD_Restore_RAM
 0001:00009C13       VDD_Rest_Event_Handle
 0001:00000257       VDD_Resume
 0001:000003EA       VDD_Resume_Bkgnd_VMs
 0001:0000571A       VDD_Res_HW_Regs
 0002:000006AE       VDD_Rsrv_C6C7_Ini
 0001:00003DE4       VDD_Save
 0001:000041E6       VDD_Save2
 0001:0000510C       VDD_SaveMsgStt
 0001:00005478       VDD_SaveRegs
 0001:00005470       VDD_SaveRegs_Event
 0001:000055D1       VDD_Save_HW_Regs
 0001:0000517F       VDD_Save_Latches
 0001:000046A2       VDD_Save_RAM
 0001:0000A1B0       VDD_Scrn_Attr
 0001:00004F25       VDD_Scrn_Off
 0001:00002A40       VDD_Scrn_Size
 0001:00000973       VDD_SetCopyMask
 0001:0000090F       VDD_SetEGAMemSize
 0001:00006F18       VDD_SetTime_Chain
 0001:000002EA       VDD_SetupInitialVideoState
 0001:00001EB0       VDD_Set_VM_Time_Out
 0001:00000C1D       VDD_Set_VPH
 0001:00007174       VDD_SG0_JTab
 0001:000071F4       VDD_SG2_JTab
 0001:00007274       VDD_SGx_JTab
 0001:00004553       VDD_SRAM
 0001:000044CA       VDD_SR_Setup
 0001:00002282       VDD_State_CtlrChgs
 0001:00002162       VDD_State_GetStt
 0001:0000235F       VDD_State_MemChgs
 0001:00002489       VDD_State_Query
 0001:0000298E       VDD_State_Update
 0001:000020D4       VDD_State_VMCreate
 0002:00000612       VDD_Str_BadDevice
 0002:000005B4       VDD_Str_CheckVidPgs
 0001:000073A8       VDD_Stub_I10_Vector
 0001:000001A8       VDD_Suspend
 0001:000061BC       VDD_Suspend_NormSch
 0002:00000669       VDD_SuspMsg_Ini
 0001:000062F9       VDD_SysModalMsg
 0001:000002CF       VDD_System_Exit
 0001:000003C9       VDD_Sys_Critical_Exit
 0002:00000000       VDD_Sys_Critical_Init
 0001:00009C2B       VDD_Sys_VRAMAddr
 0002:0000067C       VDD_Text_Rows_Ini
 0002:00000688       VDD_Text_Rows_Sect
 0002:00000658       VDD_Time_Ini
 0001:000062AB       VDD_Unlock_APP
 0001:00000F72       VDD_Unmapped
 0001:00001948       VDD_Unmap_PShdw
 0001:00001E90       VDD_Update_Window
 0001:000073B4       VDD_V86_tmp_data_area
 0001:0000006E       VDD_VMCreate
 0001:0000206E       VDD_VMDA_Grab
 0001:00001FF3       VDD_VMDA_Update
 0001:00000142       VDD_VMDestroy
 0001:00006F14       VDD_VMIdle_Chain
 0001:000000B4       VDD_VMInit
 0001:000000E5       VDD_VMSetFocus
 0001:00001E74       VDD_VMTimeOut
 0001:0000739C       VDD_Win_Update_Time
 0001:00006200       VGMm_Set_Struc
 0001:000029EE       Vid_Chk_Cursor
 0001:00007394       Vid_Flags
 0001:000020C8       Vid_Grab_CallBack
 0001:000073B8       Vid_I10_Next_CS
 0001:000073BC       Vid_I10_Next_EIP
 0001:0000204D       Vid_Upd_CallBack
 0001:00007388       Vid_VM_Handle
 0001:0000738C       Vid_VM_Handle2
 0001:00007390       Vid_VM_HandleRun
 0001:00002C90       VIOT_3C0
 0001:00002CC4       VIOT_3C1
 0001:00002D78       VIOT_3C2
 0001:00002DE8       VIOT_3C4
 0001:00002E34       VIOT_3C5
 0001:00002EC0       VIOT_3C6
 0001:00002EF4       VIOT_3C8
 0001:00002F38       VIOT_3C9
 0001:00002F88       VIOT_3CA
 0001:00002FB9       VIOT_3CB
 0001:000030E8       VIOT_3CC
 0001:00003015       VIOT_3CD
 0001:00003124       VIOT_3CE
 0001:00003178       VIOT_3CF
 0001:0000320C       VIOT_3D4
 0001:00003258       VIOT_3D5
 0001:00003528       VIOT_3D8
 0001:000034A0       VIOT_3DA
 0001:0000357C       VIOT_3DB
 0001:000035CC       VIOT_3DC
 0001:00003600       VIOT_3DD
 0001:00003634       VIOT_3DE
 0001:00003668       VIOT_3DF
 0001:00002C70       VIOT_Ignore
 0001:00002C68       VIOT_In_Undef
 0001:00002FCC       VIOT_x3CB
 0001:00003028       VIOT_x3CD
 0001:00007872       VMB_Str_CannotGrab
 0001:00007524       VMB_Str_Exclusive
 0001:00007452       VMB_Str_NoCopyMem
 0001:0000776E       VMB_Str_NoFGrnd
 0001:000073C0       VMB_Str_NoMainMem
 0001:000076B1       VMB_Str_NoSupMode
 0001:000075F5       VMB_Str_NotWindow
 0001:0000274A       VMTC_CheckRect
 0001:000026CB       VMTC_CombineRect
 0001:000026F7       VMTC_CombineThree
 0001:00002818       VMT_Check_Scroll
 0001:000025BB       VMT_Comp
 0001:00003888       VOT_2G_DoIt
 0001:0000389C       VOT_2G_Misc
 0001:000038C8       VOT_2G_Mode
 0001:0000384C       VOT_2S_Mask
 0001:00003860       VOT_2S_MMode
 0001:000037C4       VOT_VG_Fin
 0001:000037E4       VOT_VG_Func
 0001:000037F8       VOT_VG_Mask
 0001:0000382C       VOT_VG_Misc
 0001:0000380C       VOT_VG_Mode
 0001:00003820       VOT_VG_MSlct
 0001:000037D0       VOT_VG_SREna
 0001:00003780       VOT_VS_Fin
 0001:0000378C       VOT_VS_Mask
 0001:00003798       VOT_VS_MMode
 0001:00001D7E       VPF_SuspendNow_Event
 0001:00001DFD       VPF_Susp_Event
 0001:0000209A       VV_Grab_Event
 0001:0000201F       VV_Update_Event

  Address         Publics by Value

 0000:00000040  Abs  Seq_Rtn_Off
 0001:00000000       VDD_Control
 0001:0000006E       VDD_VMCreate
 0001:000000B4       VDD_VMInit
 0001:000000E5       VDD_VMSetFocus
 0001:00000142       VDD_VMDestroy
 0001:000001A8       VDD_Suspend
 0001:00000257       VDD_Resume
 0001:000002CF       VDD_System_Exit
 0001:000002EA       VDD_SetupInitialVideoState
 0001:000003C9       VDD_Sys_Critical_Exit
 0001:000003EA       VDD_Resume_Bkgnd_VMs
 0001:00000447       VDD_DebugQuery
 0001:00000834       VDD_Mem_VMCreate
 0001:000008A4       VDD_Mem_VMInit
 0001:0000090F       VDD_SetEGAMemSize
 0001:0000092F       VDD_Mem_VMSetTyp
 0001:00000973       VDD_SetCopyMask
 0001:000009D8       VDD_Mem_VMDestroy
 0001:000009EF       VDD_CheckMmgrCallOK
 0001:00000A07       VDD_Mem_AMain
 0001:00000BC4       VDD_ReSet_VPH
 0001:00000C1D       VDD_Set_VPH
 0001:00000C84       VDD_Mem_ACopy
 0001:00000D69       VDD_Mem_DMain
 0001:00000DD8       VDD_Mem_DCopy
 0001:00000E1A       VDD_Mem_Disable
 0001:00000EA5       VDD_Mem_Physical
 0001:00000F37       VDD_Mem_Physical2
 0001:00000F72       VDD_Unmapped
 0001:0000105B       VDD_Mem_Update
 0001:000010E5       VDD_Mem_MakeCopy
 0001:00001186       VDD_Mem_UpdOff
 0001:00001213       VDD_Mem_ModPag
 0001:00001263       VDD_Adj_Msk
 0001:00001287       VDD_Mem_ChkPag
 0001:000012CA       VDD_Mem_Chg
 0001:00001407       VDD_Mem_Test_256k
 0001:0000142E       VDD_Mem_Valid
 0001:000014A6       VDD_Mem_Remap
 0001:00001631       VDD_MR_MapIt
 0001:000016A1       VDD_Mem_MapNull
 0001:000016C4       VDD_Mem_CalcPage
 0001:00001736       VDD_Mem_Null
 0001:000017AB       VDD_Mem_I10Done
 0001:0000186E       VDD_CMap_PShdw
 0001:000018BB       VDD_Map_PShdw
 0001:00001948       VDD_Unmap_PShdw
 0001:000019E8       VDD_Alloc_PShdw
 0001:00001AAE       VDD_Dealloc_PShdw
 0001:00001B2D       VDD_Mem_QPShdw
 0001:00001B88       VDD_PFault
 0001:00001D7E       VPF_SuspendNow_Event
 0001:00001DFD       VPF_Susp_Event
 0001:00001E36       @VDD_VMIdle
 0001:00001E74       VDD_VMTimeOut
 0001:00001E90       VDD_Update_Window
 0001:00001EB0       VDD_Set_VM_Time_Out
 0001:00001EF0       VDD_Clr_VM_Time_Out
 0001:00001F0A       VDD_Detach
 0001:00001F69       VDD_Attach2
 0001:00001FA5       VDD_Detach2
 0001:00001FF3       VDD_VMDA_Update
 0001:0000201F       VV_Update_Event
 0001:0000204D       Vid_Upd_CallBack
 0001:0000206E       VDD_VMDA_Grab
 0001:0000209A       VV_Grab_Event
 0001:000020C8       Vid_Grab_CallBack
 0001:000020D4       VDD_State_VMCreate
 0001:00002162       VDD_State_GetStt
 0001:00002282       VDD_State_CtlrChgs
 0001:0000235F       VDD_State_MemChgs
 0001:00002489       VDD_State_Query
 0001:0000250A       VDD_Mod_Text
 0001:00002583       Setup_Start_Count
 0001:000025BB       VMT_Comp
 0001:000026CB       VMTC_CombineRect
 0001:000026F7       VMTC_CombineThree
 0001:0000274A       VMTC_CheckRect
 0001:00002818       VMT_Check_Scroll
 0001:0000289F       ConvertToScroll
 0001:000028FC       FoundScrollRect
 0001:0000298E       VDD_State_Update
 0001:000029EE       Vid_Chk_Cursor
 0001:00002A40       VDD_Scrn_Size
 0001:00002AF2       VDD_Get_Mode
 0001:00002B79       VDD_Get_EGA_Posn
 0001:00002BA0       VDD_IO_SetTrap
 0001:00002C68       VIOT_In_Undef
 0001:00002C70       VIOT_Ignore
 0001:00002C90       VIOT_3C0
 0001:00002CC4       VIOT_3C1
 0001:00002D78       VIOT_3C2
 0001:00002DE8       VIOT_3C4
 0001:00002E34       VIOT_3C5
 0001:00002EC0       VIOT_3C6
 0001:00002EF4       VIOT_3C8
 0001:00002F38       VIOT_3C9
 0001:00002F88       VIOT_3CA
 0001:00002FB9       VIOT_3CB
 0001:00002FCC       VIOT_x3CB
 0001:00003015       VIOT_3CD
 0001:00003028       VIOT_x3CD
 0001:000030E8       VIOT_3CC
 0001:00003124       VIOT_3CE
 0001:00003178       VIOT_3CF
 0001:0000320C       VIOT_3D4
 0001:00003258       VIOT_3D5
 0001:000034A0       VIOT_3DA
 0001:00003528       VIOT_3D8
 0001:0000357C       VIOT_3DB
 0001:000035CC       VIOT_3DC
 0001:00003600       VIOT_3DD
 0001:00003634       VIOT_3DE
 0001:00003668       VIOT_3DF
 0001:00003780       VOT_VS_Fin
 0001:0000378C       VOT_VS_Mask
 0001:00003798       VOT_VS_MMode
 0001:000037C4       VOT_VG_Fin
 0001:000037D0       VOT_VG_SREna
 0001:000037E4       VOT_VG_Func
 0001:000037F8       VOT_VG_Mask
 0001:0000380C       VOT_VG_Mode
 0001:00003820       VOT_VG_MSlct
 0001:0000382C       VOT_VG_Misc
 0001:0000384C       VOT_2S_Mask
 0001:00003860       VOT_2S_MMode
 0001:00003888       VOT_2G_DoIt
 0001:0000389C       VOT_2G_Misc
 0001:000038C8       VOT_2G_Mode
 0001:000038EF       VDD_CRTC_PChg
 0001:00003964       VDD_Int_10
 0001:00003B79       VDD_I10_Mode_Switch
 0001:00003B97       VDD_I10_Mode_Change_Start
 0001:00003C44       VDD_I10_Mode_Sw_Done
 0001:00003C58       VDD_I10_Mode_Change_End
 0001:00003CAF       VDD_Int_10_PM
 0001:00003D44       VDD_PM_Int_2F
 0001:00003D6B       VDD_Int_2F
 0001:00003DE4       VDD_Save
 0001:00003E41       VDD_Backgrnd_Event
 0001:00003EC0       VDD_Restore
 0001:00003F66       VDD_Do_Restore
 0001:00003F7B       VDD_Dont_Restore
 0001:00003F97       VDD_Cancel_Restore
 0001:00003FB4       VDD_Restore_Event
 0001:000041A2       VDD_FGrnd_Notify
 0001:000041E6       VDD_Save2
 0001:00004240       VDD_Restore2
 0001:00004267       VDD_Cancel_Restore2
 0001:0000427E       VDD_Restore2_Event
 0001:0000433F       VDD_Grab
 0001:000043F6       VDD_GrabTextMode
 0001:00004450       VDD_CopyTextPages
 0001:000044CA       VDD_SR_Setup
 0001:00004553       VDD_SRAM
 0001:000046A2       VDD_Save_RAM
 0001:0000480C       VDD_Clear_RAM
 0001:00004865       VDD_Restore_RAM
 0001:00004A24       VDD_MsgRestFontAndClear
 0001:00004A76       VDD_MsgSaveFont
 0001:00004AA1       VDD_RestCRTC
 0001:00004F08       VDD_OutC_Ctrlr
 0001:00004F25       VDD_Scrn_Off
 0001:00004F44       VDD_RestIndx
 0001:00004FCF       VDD_Global_Restore
 0001:00005020       VDD_Pre_SR
 0001:0000510C       VDD_SaveMsgStt
 0001:00005142       VDD_RestMsgStt
 0001:0000517F       VDD_Save_Latches
 0001:00005237       VDD_Restore_Latches
 0001:000052D0       VDD_RestCtlr
 0001:00005470       VDD_SaveRegs_Event
 0001:00005478       VDD_SaveRegs
 0001:000055D1       VDD_Save_HW_Regs
 0001:0000571A       VDD_Res_HW_Regs
 0001:00005802       @VDD_Get_Version
 0001:00005816       VDD_Get_GrbVersion
 0001:0000582E       VDD_Begin_Msg_Mode
 0001:0000587C       VDD_End_Msg_Mode
 0001:0000590F       @VDD_Msg_ClrScrn
 0001:000059A7       VDD_Msg_InitScreen
 0001:00005A3F       @VDD_Msg_ForColor
 0001:00005ABE       @VDD_Msg_BakColor
 0001:00005B40       @VDD_Msg_TextOut
 0001:00005C4A       @VDD_Msg_SetCursPos
 0001:00005CE6       @VDD_PIF_State
 0001:00005D17       @VDD_Set_HCurTrk
 0001:00005D3D       @VDD_Get_GrabRtn
 0001:00005D5D       @VDD_Hide_Cursor
 0001:00005DCA       @VDD_Query_Access
 0001:00005E3A       @VDD_Set_VMType
 0001:00005EAC       @VDD_Get_ModTime
 0001:00005EED       @VDD_Check_Update_Soon
 0001:00005F02       VDD_PM_API
 0001:00005F7D       VDD_Grb_Version
 0001:00005FC8       VDD_Get_GrbState
 0001:00005FD3       VDD_Get_State
 0001:00006053       VDD_Get_Mod
 0001:00006143       VDD_Clear_Mod
 0001:00006194       VDD_Get_Mem
 0001:000061BC       VDD_Suspend_NormSch
 0001:000061F0       VDD_Get_GrbMem
 0001:00006200       VGMm_Set_Struc
 0001:00006286       VDD_Free_Grab
 0001:00006296       VDD_Free_Mem
 0001:000062AB       VDD_Unlock_APP
 0001:000062F9       VDD_SysModalMsg
 0001:0000630F       VDD_Message
 0001:00006326       VDD_Msg_NotWindow
 0001:00006347       VDD_Msg_Exclusive
 0001:00006368       VDD_Msg_NoSupMode
 0001:00006389       VDD_Msg_NoFGrnd
 0001:000063AE       VDD_Msg_NoMainMem
 0001:000063D3       VDD_Msg_NoCopyMem
 0001:000063F8       VDD_Msg_CannotGrab
 0001:00006414       $VDD_Get_Version
 0001:00006418       $VDD_PIF_State
 0001:0000641C       $VDD_Get_GrabRtn
 0001:00006420       $VDD_Hide_Cursor
 0001:00006424       $VDD_Set_VMType
 0001:00006428       $VDD_Get_ModTime
 0001:0000642C       $VDD_Set_HCurTrk
 0001:00006430       $VDD_Msg_ClrScrn
 0001:00006434       $VDD_Msg_ForColor
 0001:00006438       $VDD_Msg_BakColor
 0001:0000643C       $VDD_Msg_TextOut
 0001:00006440       $VDD_Msg_SetCursPos
 0001:00006444       $VDD_Query_Access
 0001:00006448       $VDD_Check_Update_Soon
 0001:0000644C       VDD_DDB
 0001:00006484       VDD_Focus_VM
 0001:00006958       VDD_PT_Buff
 0001:00006A48       VDD_Mem_Ini_Tab
 0001:00006A8C       VDD_Mem_Ini_Tab2
 0001:00006F14       VDD_VMIdle_Chain
 0001:00006F18       VDD_SetTime_Chain
 0001:00006FDC       VDD_Mod_MskTab
 0001:0000702C       VDD_Mod_MskTab2
 0001:00007174       VDD_SG0_JTab
 0001:000071F4       VDD_SG2_JTab
 0001:00007274       VDD_SGx_JTab
 0001:00007388       Vid_VM_Handle
 0001:0000738C       Vid_VM_Handle2
 0001:00007390       Vid_VM_HandleRun
 0001:00007394       Vid_Flags
 0001:00007398       VDD_CB_Off
 0001:0000739C       VDD_Win_Update_Time
 0001:000073A0       VDD_Initial_Text_Rows
 0001:000073A4       VDD_I10_OldVector
 0001:000073A8       VDD_Stub_I10_Vector
 0001:000073AC       VDD_I2F_Next_CS
 0001:000073B0       VDD_I2F_Next_EIP
 0001:000073B4       VDD_V86_tmp_data_area
 0001:000073B8       Vid_I10_Next_CS
 0001:000073BC       Vid_I10_Next_EIP
 0001:000073C0       VMB_Str_NoMainMem
 0001:00007452       VMB_Str_NoCopyMem
 0001:00007524       VMB_Str_Exclusive
 0001:000075F5       VMB_Str_NotWindow
 0001:000076B1       VMB_Str_NoSupMode
 0001:0000776E       VMB_Str_NoFGrnd
 0001:00007872       VMB_Str_CannotGrab
 0001:000078CC       VDD_Msg_Pseudo_VM
 0001:000078D0       VDD_Msg_Pseudo_CB
 0001:00009C13       VDD_Rest_Event_Handle
 0001:00009C17       VDD_Rest2_Event_Handle
 0001:00009C1B       VDD_PhysA0000
 0001:00009C1F       VDD_Latch_Addr
 0001:00009C23       VDD_Phys2EGA
 0001:00009C27       VDD_2EGA_Start
 0001:00009C2B       VDD_Sys_VRAMAddr
 0001:00009CD0       VDD_Grb_MskTab
 0001:0000A1AC       VDD_Msg_VM
 0001:0000A1B0       VDD_Scrn_Attr
 0002:00000000       VDD_Sys_Critical_Init
 0002:00000204       VDD_Device_Init
 0002:00000464       VDD_IO_Init
 0002:000004F0       VDD_IO_Table
 0002:000005B4       VDD_Str_CheckVidPgs
 0002:00000612       VDD_Str_BadDevice
 0002:00000658       VDD_Time_Ini
 0002:00000669       VDD_SuspMsg_Ini
 0002:0000067C       VDD_Text_Rows_Ini
 0002:00000688       VDD_Text_Rows_Sect
 0002:00000696       VDD_2nd_Ini
 0002:000006A2       VDD_Mono_Text_Ini
 0002:000006AE       VDD_Rsrv_C6C7_Ini

Program entry point at 0003:000A
