
 VKD

 Start         Length     Name                   Class
 0001:00000000 000002ECAH _LTEXT                 CODE 32-bit
 0001:00002ECC 0000012BCH _LDATA                 CODE 32-bit
 0002:00000000 000000810H _ITEXT                 ICODE 32-bit
 0002:00000810 0000001C0H _IDATA                 ICODE 32-bit
 0003:00000000 000000000H _TEXT                  PCODE 32-bit
 0003:00000000 000000000H _DATA                  PCODE 32-bit
 0003:00000000 000000000H _RCODE                 RCODE 16-bit

 Origin   Group
 0002:0   _IGROUP
 0001:0   _LGROUP
 0003:0   _PGROUP
 0000:0   FLAT

 Address       Export                  Alias

 0001:000031C4 VKD_DDB                 VKD_DDB

  Address         Publics by Name

 0001:000031A0       $VKD_Cancel_Hot_Key_State
 0001:000031B4       $VKD_Cancel_Paste
 0001:0000318C       $VKD_Define_Hot_Key
 0001:000031AC       $VKD_Define_Paste_Mode
 0001:000031C0       $VKD_Flush_Msg_Key_Queue
 0001:000031A4       $VKD_Force_Keys
 0001:000031A8       $VKD_Get_Kbd_Owner
 0001:000031B8       $VKD_Get_Msg_Key
 0001:00003188       $VKD_Get_Version
 0001:00003198       $VKD_Local_Disable_Hot_Key
 0001:00003194       $VKD_Local_Enable_Hot_Key
 0001:000031BC       $VKD_Peek_Msg_Key
 0001:0000319C       $VKD_Reflect_Hot_Key
 0001:00003190       $VKD_Remove_Hot_Key
 0001:000031B0       $VKD_Start_Paste
 0001:00000DDD       @VKD_Cancel_Hot_Key_State
 0001:00000FA1       @VKD_Cancel_Paste
 0001:00000AD6       @VKD_Define_Hot_Key
 0001:00000E9B       @VKD_Define_Paste_Mode
 0001:00001081       @VKD_Flush_Msg_Key_Queue
 0001:00000E29       @VKD_Force_Keys
 0001:00000E7A       @VKD_Get_Kbd_Owner
 0001:00000FC6       @VKD_Get_Msg_Key
 0001:00000AB5       @VKD_Get_Version
 0001:00000CA3       @VKD_Local_Disable_Hot_Key
 0001:00000C0D       @VKD_Local_Enable_Hot_Key
 0001:00001026       @VKD_Peek_Msg_Key
 0001:00000D39       @VKD_Reflect_Hot_Key
 0001:00001BFE       @VKD_Release_TS_Hook
 0001:00000B8E       @VKD_Remove_Hot_Key
 0001:00000ED4       @VKD_Start_Paste
 0001:000013E4       Build_Key
 0001:000023C0       Chk_Hot_Keys
 0001:00001DB4       Chk_Shift_State
 0001:00001D90       CombineShiftKeys
 0001:00002E8B       Dump_KeyBuf
 0002:0000060C       Force_Upper_Case
 0001:00002ABD       Get_8042_Byte
 0001:00002660       Hot_Key_Ended
 0001:000024E7       Hot_Key_Entered
 0001:00003C18       Hot_Key_List
 0001:000025B9       Hot_Key_Notify
 0001:00003C1C       Hot_Key_Notify_List
 0001:00001CE6       IsModifierKey
 0001:00001CD4       IsShiftKey
 0002:00000929       Kbd_8042_ReadCmd_Ini
 0002:00000935       Kbd_8042_WriteCmd_Ini
 0002:00000901       Kbd_AltPaste_Delay
 0002:000008B1       Kbd_Alt_Delay
 0002:000008A4       Kbd_Boost_Time
 0002:000008DF       Kbd_CR_Paste_Pause_Ini
 0002:0000091E       Kbd_MCA_Passwd_Ini
 0002:0000090F       Kbd_PasteBuf_Delay
 0002:000008CD       Kbd_Paste_Pause_Ini
 0002:000008BD       Kbd_Paste_TimeOut
 0002:00000942       Kbd_Reboot_Ini
 0002:000008F3       Kbd_SlowPaste_Delay
 0002:0000094D       Key_Delay_Ini
 0001:00002C61       Kybd_Wait_Out
 0001:00002ADC       Put_8042_Byte
 0001:000016F1       QueueFromPasteBuf
 0001:00001540       Queue_Ext_Shift
 0001:00001671       Queue_Msg_Mode_Key
 0001:0000151C       Queue_Output
 0001:0000163B       Queue_Virtual_Key
 0001:00001F46       Show_VKD_Hot_Key
 0001:00001E56       Show_VMs_VKD_State
 0001:00001428       Simulate_VM_INT9
 0001:0000184C       Update_Shift_State
 0001:000006F4       VAD_BIOS_Far_Call
 0001:00000000       VAD_Create_VM
 0001:00000023       VAD_Destroy_VM
 0002:00000000       VAD_Device_Init
 0002:0000095A       VAD_exit_init_Ini
 0001:00000518       VAD_INT
 0001:00000208       VAD_Int_15_Emulation
 0001:00000680       VAD_IRET
 0001:000001DD       VAD_PM_Int_15_Emulation
 0001:00000338       VAD_Read_Command
 0001:000003A0       VAD_Read_Data
 0001:00000498       VAD_Request_Int
 0001:00000171       VAD_Set_Focus
 0001:0000008E       VAD_System_Exit
 0001:00000428       VAD_Test_Data_Avail
 0001:00000384       VAD_Write_Command
 0001:00003DE0       VKD_8042_cmd_table
 0001:00003DDC       VKD_8042_owner
 0001:00002AF9       VKD_8042_Response
 0001:00002B18       VKD_8042_Server
 0001:00001C5E       VKD_Abort_INT16_Paste
 0001:00002E02       VKD_ACK_Timeout
 0001:00003220       VKD_Alt_Delay
 0001:00001A69       VKD_Alt_Timeout
 0001:0000110B       VKD_API_Force_Key
 0001:000010F9       VKD_API_Get_Version
 0001:00003253       VKD_attempt_reboot
 0001:00001364       VKD_Beep
 0001:00000A3B       VKD_Begin_Msg_Mode
 0001:00002CC7       VKD_Buf_Empty
 0001:00003200       VKD_CB_Offset
 0001:00001D0E       VKD_Chk_BIOS_Toggle_State
 0001:00002D57       VKD_Clear_Data_Buf
 0001:000007A4       VKD_Control
 0001:00001D40       VKD_Convert_BIOS_Shift_State
 0001:000031C4       VKD_DDB
 0001:00002018       VKD_Debug_Query
 0001:0000097F       VKD_Destroy_VM
 0002:0000056D       VKD_Device_Init
 0001:00002D47       VKD_Disable_Kbd
 0001:00000812       VKD_Disable_Keyboard
 0001:00002D37       VKD_Enable_Kbd
 0001:0000084C       VKD_Enable_Keyboard
 0001:00000A80       VKD_End_Msg_Mode
 0001:00001C8B       VKD_End_Paste
 0001:00001980       VKD_EOI
 0002:0000096D       VKD_failed_irq_init
 0001:00003248       VKD_flags
 0001:00003224       VKD_gbl_shift_state
 0001:000022F1       VKD_Gen_Info
 0001:00002CDC       VKD_Get_Byte
 0001:0000137C       VKD_Get_Key
 0001:000021F5       VKD_HtKy_Info
 0001:00001BA9       VKD_INT16_write
 0001:00003218       VKD_INT9_Alt_Delay
 0001:0000321C       VKD_INT9_buf_full_Delay
 0001:00003214       VKD_INT9_Paste_Delay
 0001:00002B74       VKD_Int_09
 0001:00001A7C       VKD_Int_16
 0001:0000320C       VKD_Int_Boost_Amount
 0002:0000073B       VKD_IO_Init
 0001:000019F4       VKD_IRET
 0001:000031FC       VKD_irq_Handle
 0001:00003204       VKD_Kbd_Owner
 0001:00001A59       VKD_Next_Paste_Code
 0001:00002B44       VKD_OutputByte
 0001:00003210       VKD_PasteTimeout
 0001:0000181F       VKD_Paste_Restart
 0001:000010D3       VKD_PM_API_Entry
 0001:00002708       VKD_PriorityNotify
 0002:00000630       VKD_process_cmd_ini
 0001:00002D07       VKD_Put_Byte
 0001:000020DD       VKD_Queue_Info
 0001:00002E3B       VKD_Reboot
 0001:00002CB9       VKD_Send_Cmd
 0001:00002CA6       VKD_Send_Data
 0001:00002B55       VKD_send_queued_command
 0001:0000182F       VKD_send_ralt_pre
 0001:000009C7       VKD_Set_Focus
 0001:00002DB6       VKD_Set_Key_Rate
 0001:00002D6A       VKD_Set_LEDs
 0002:0000061D       VKD_skip_white_space
 0001:000008A0       VKD_System_Exit
 0002:00000284       VKD_Sys_Critical_Init
 0001:000008DD       VKD_Sys_Crit_Exit
 0001:00000880       VKD_Sys_VM_Terminate
 0001:00002798       VKD_Trap_CommandR
 0001:0000291C       VKD_Trap_DataR
 0001:000019D3       VKD_Virt_Int
 0001:000008EC       VKD_VM_Critical_Init
 0001:0000225F       VKD_VM_Info
 0001:0000093C       VKD_VM_Init
 0001:0000096D       VKD_VM_Not_Executeable
 0001:00001244       VKD_VM_Server
 0001:00001234       VKD_VM_Service_Phys
 0001:00000958       VKD_VM_Suspend
 0002:00000260       VKD_Wait_Busy
 0002:00000272       VKD_Wait_Empty
 0001:00003208       VK_D_QFlag
 0001:00002AAE       _8042_Buf_Empty

  Address         Publics by Value

 0001:00000000       VAD_Create_VM
 0001:00000023       VAD_Destroy_VM
 0001:0000008E       VAD_System_Exit
 0001:00000171       VAD_Set_Focus
 0001:000001DD       VAD_PM_Int_15_Emulation
 0001:00000208       VAD_Int_15_Emulation
 0001:00000338       VAD_Read_Command
 0001:00000384       VAD_Write_Command
 0001:000003A0       VAD_Read_Data
 0001:00000428       VAD_Test_Data_Avail
 0001:00000498       VAD_Request_Int
 0001:00000518       VAD_INT
 0001:00000680       VAD_IRET
 0001:000006F4       VAD_BIOS_Far_Call
 0001:000007A4       VKD_Control
 0001:00000812       VKD_Disable_Keyboard
 0001:0000084C       VKD_Enable_Keyboard
 0001:00000880       VKD_Sys_VM_Terminate
 0001:000008A0       VKD_System_Exit
 0001:000008DD       VKD_Sys_Crit_Exit
 0001:000008EC       VKD_VM_Critical_Init
 0001:0000093C       VKD_VM_Init
 0001:00000958       VKD_VM_Suspend
 0001:0000096D       VKD_VM_Not_Executeable
 0001:0000097F       VKD_Destroy_VM
 0001:000009C7       VKD_Set_Focus
 0001:00000A3B       VKD_Begin_Msg_Mode
 0001:00000A80       VKD_End_Msg_Mode
 0001:00000AB5       @VKD_Get_Version
 0001:00000AD6       @VKD_Define_Hot_Key
 0001:00000B8E       @VKD_Remove_Hot_Key
 0001:00000C0D       @VKD_Local_Enable_Hot_Key
 0001:00000CA3       @VKD_Local_Disable_Hot_Key
 0001:00000D39       @VKD_Reflect_Hot_Key
 0001:00000DDD       @VKD_Cancel_Hot_Key_State
 0001:00000E29       @VKD_Force_Keys
 0001:00000E7A       @VKD_Get_Kbd_Owner
 0001:00000E9B       @VKD_Define_Paste_Mode
 0001:00000ED4       @VKD_Start_Paste
 0001:00000FA1       @VKD_Cancel_Paste
 0001:00000FC6       @VKD_Get_Msg_Key
 0001:00001026       @VKD_Peek_Msg_Key
 0001:00001081       @VKD_Flush_Msg_Key_Queue
 0001:000010D3       VKD_PM_API_Entry
 0001:000010F9       VKD_API_Get_Version
 0001:0000110B       VKD_API_Force_Key
 0001:00001234       VKD_VM_Service_Phys
 0001:00001244       VKD_VM_Server
 0001:00001364       VKD_Beep
 0001:0000137C       VKD_Get_Key
 0001:000013E4       Build_Key
 0001:00001428       Simulate_VM_INT9
 0001:0000151C       Queue_Output
 0001:00001540       Queue_Ext_Shift
 0001:0000163B       Queue_Virtual_Key
 0001:00001671       Queue_Msg_Mode_Key
 0001:000016F1       QueueFromPasteBuf
 0001:0000181F       VKD_Paste_Restart
 0001:0000182F       VKD_send_ralt_pre
 0001:0000184C       Update_Shift_State
 0001:00001980       VKD_EOI
 0001:000019D3       VKD_Virt_Int
 0001:000019F4       VKD_IRET
 0001:00001A59       VKD_Next_Paste_Code
 0001:00001A69       VKD_Alt_Timeout
 0001:00001A7C       VKD_Int_16
 0001:00001BA9       VKD_INT16_write
 0001:00001BFE       @VKD_Release_TS_Hook
 0001:00001C5E       VKD_Abort_INT16_Paste
 0001:00001C8B       VKD_End_Paste
 0001:00001CD4       IsShiftKey
 0001:00001CE6       IsModifierKey
 0001:00001D0E       VKD_Chk_BIOS_Toggle_State
 0001:00001D40       VKD_Convert_BIOS_Shift_State
 0001:00001D90       CombineShiftKeys
 0001:00001DB4       Chk_Shift_State
 0001:00001E56       Show_VMs_VKD_State
 0001:00001F46       Show_VKD_Hot_Key
 0001:00002018       VKD_Debug_Query
 0001:000020DD       VKD_Queue_Info
 0001:000021F5       VKD_HtKy_Info
 0001:0000225F       VKD_VM_Info
 0001:000022F1       VKD_Gen_Info
 0001:000023C0       Chk_Hot_Keys
 0001:000024E7       Hot_Key_Entered
 0001:000025B9       Hot_Key_Notify
 0001:00002660       Hot_Key_Ended
 0001:00002708       VKD_PriorityNotify
 0001:00002798       VKD_Trap_CommandR
 0001:0000291C       VKD_Trap_DataR
 0001:00002AAE       _8042_Buf_Empty
 0001:00002ABD       Get_8042_Byte
 0001:00002ADC       Put_8042_Byte
 0001:00002AF9       VKD_8042_Response
 0001:00002B18       VKD_8042_Server
 0001:00002B44       VKD_OutputByte
 0001:00002B55       VKD_send_queued_command
 0001:00002B74       VKD_Int_09
 0001:00002C61       Kybd_Wait_Out
 0001:00002CA6       VKD_Send_Data
 0001:00002CB9       VKD_Send_Cmd
 0001:00002CC7       VKD_Buf_Empty
 0001:00002CDC       VKD_Get_Byte
 0001:00002D07       VKD_Put_Byte
 0001:00002D37       VKD_Enable_Kbd
 0001:00002D47       VKD_Disable_Kbd
 0001:00002D57       VKD_Clear_Data_Buf
 0001:00002D6A       VKD_Set_LEDs
 0001:00002DB6       VKD_Set_Key_Rate
 0001:00002E02       VKD_ACK_Timeout
 0001:00002E3B       VKD_Reboot
 0001:00002E8B       Dump_KeyBuf
 0001:00003188       $VKD_Get_Version
 0001:0000318C       $VKD_Define_Hot_Key
 0001:00003190       $VKD_Remove_Hot_Key
 0001:00003194       $VKD_Local_Enable_Hot_Key
 0001:00003198       $VKD_Local_Disable_Hot_Key
 0001:0000319C       $VKD_Reflect_Hot_Key
 0001:000031A0       $VKD_Cancel_Hot_Key_State
 0001:000031A4       $VKD_Force_Keys
 0001:000031A8       $VKD_Get_Kbd_Owner
 0001:000031AC       $VKD_Define_Paste_Mode
 0001:000031B0       $VKD_Start_Paste
 0001:000031B4       $VKD_Cancel_Paste
 0001:000031B8       $VKD_Get_Msg_Key
 0001:000031BC       $VKD_Peek_Msg_Key
 0001:000031C0       $VKD_Flush_Msg_Key_Queue
 0001:000031C4       VKD_DDB
 0001:000031FC       VKD_irq_Handle
 0001:00003200       VKD_CB_Offset
 0001:00003204       VKD_Kbd_Owner
 0001:00003208       VK_D_QFlag
 0001:0000320C       VKD_Int_Boost_Amount
 0001:00003210       VKD_PasteTimeout
 0001:00003214       VKD_INT9_Paste_Delay
 0001:00003218       VKD_INT9_Alt_Delay
 0001:0000321C       VKD_INT9_buf_full_Delay
 0001:00003220       VKD_Alt_Delay
 0001:00003224       VKD_gbl_shift_state
 0001:00003248       VKD_flags
 0001:00003253       VKD_attempt_reboot
 0001:00003C18       Hot_Key_List
 0001:00003C1C       Hot_Key_Notify_List
 0001:00003DDC       VKD_8042_owner
 0001:00003DE0       VKD_8042_cmd_table
 0002:00000000       VAD_Device_Init
 0002:00000260       VKD_Wait_Busy
 0002:00000272       VKD_Wait_Empty
 0002:00000284       VKD_Sys_Critical_Init
 0002:0000056D       VKD_Device_Init
 0002:0000060C       Force_Upper_Case
 0002:0000061D       VKD_skip_white_space
 0002:00000630       VKD_process_cmd_ini
 0002:0000073B       VKD_IO_Init
 0002:000008A4       Kbd_Boost_Time
 0002:000008B1       Kbd_Alt_Delay
 0002:000008BD       Kbd_Paste_TimeOut
 0002:000008CD       Kbd_Paste_Pause_Ini
 0002:000008DF       Kbd_CR_Paste_Pause_Ini
 0002:000008F3       Kbd_SlowPaste_Delay
 0002:00000901       Kbd_AltPaste_Delay
 0002:0000090F       Kbd_PasteBuf_Delay
 0002:0000091E       Kbd_MCA_Passwd_Ini
 0002:00000929       Kbd_8042_ReadCmd_Ini
 0002:00000935       Kbd_8042_WriteCmd_Ini
 0002:00000942       Kbd_Reboot_Ini
 0002:0000094D       Key_Delay_Ini
 0002:0000095A       VAD_exit_init_Ini
 0002:0000096D       VKD_failed_irq_init
