
 MSNET

 Start     Length     Name                   Class
 0001:0000 00484H     _TEXT                  CODE
 0002:0000 00201H     _DEV                   CODE
 0003:0000 00237H     _MSN                   CODE
 0004:0000 00176H     _CONS                  CODE
 0005:0000 00676H     _PRNT                  CODE
 0006:0000 000E4H     _DATA                  DATA

 Origin   Group
 0006:0   DGROUP

 Address   Export                  Alias

 0002:0048 AboutDlgProc            AboutDlgProc
 0002:0079 DeviceModeDialog        DeviceModeDialog
 0001:031A TimerProc               TimerProc
 0001:0047 WEP                     WEP
 0004:0000 WNetAddConnection       WNetAddConnection
 0001:042E WNetBrowseDialog        WNetBrowseDialog
 0004:0076 WNetCancelConnection    WNetCancelConnection
 0001:0422 WNetCancelJob           WNetCancelJob
 0005:009E WNetCloseJob            WNetCloseJob
 0001:044E WNETCONNECTDIALOG       WNETCONNECTDIALOG
 0001:0460 WNETCONNECTIONDIALOG    WNETCONNECTIONDIALOG
 0002:019B WNetDeviceMode          WNetDeviceMode
 0001:0472 WNETDIRECTORYNOTIFY     WNETDIRECTORYNOTIFY
 0001:044A WNetDisable             WNetDisable
 0001:0454 WNETDISCONNECTDIALOG    WNETDISCONNECTDIALOG
 0001:0446 WNetEnable              WNetEnable
 0001:004C WNetGetCaps             WNetGetCaps
 0004:009C WNetGetConnection       WNetGetConnection
 0001:046C WNETGETDIRECTORYTYPE    WNETGETDIRECTORYTYPE
 0001:0434 WNetGetError            WNetGetError
 0001:043A WNetGetErrorText        WNetGetErrorText
 0001:0478 WNETGETPROPERTYTEXT     WNETGETPROPERTYTEXT
 0001:0076 WNetGetUser             WNetGetUser
 0001:0416 WNetHoldJob             WNetHoldJob
 0005:0295 WNetLockQueueData       WNetLockQueueData
 0005:0000 WNetOpenJob             WNetOpenJob
 0001:045A WNETPROPERTYDIALOG      WNETPROPERTYDIALOG
 0001:041C WNetReleaseJob          WNetReleaseJob
 0001:047E WNETRESTORECONNECTION   WNETRESTORECONNECTION
 0001:0428 WNetSetJobCopies        WNetSetJobCopies
 0005:0371 WNetUnlockQueueData     WNetUnlockQueueData
 0001:03D4 WNetUnwatchQueue        WNetUnwatchQueue
 0001:0466 WNETVIEWQUEUEDIALOG     WNETVIEWQUEUEDIALOG
 0001:0383 WNetWatchQueue          WNetWatchQueue
 0005:00F2 WNETWRITEJOB            WNETWRITEJOB

  Address         Publics by Name

 0002:0048       AboutDlgProc
 0006:004E       CAPSTABLE
 0000:0000  Imp  CHECKDLGBUTTON       (USER.97)
 0005:0401       COMPACTENTRY
 0005:0599       COMPLETEQUEUESTRUCT
 0005:04A5       CONVERTENTRIES
 0006:00A8       CWATCHES
 0002:0079       DeviceModeDialog
 0000:0000  Imp  DIALOGBOX            (USER.87)
 0000:0000  Imp  DOS3CALL             (KERNEL.102)
 0000:0000  Imp  ENDDIALOG            (USER.88)
 0006:0086       ERRORXTBL
 0000:0000  Imp  GETCURRENTTASK       (KERNEL.36)
 0000:0000  Imp  GETDLGITEM           (USER.91)
 0000:0000  Imp  GETPROFILEINT        (KERNEL.57)
 0005:061F       GETWHOLEQUEUE
 0000:0000  Imp  GLOBALALLOC          (KERNEL.15)
 0000:0000  Imp  GLOBALFREE           (KERNEL.17)
 0000:0000  Imp  GLOBALLOCK           (KERNEL.18)
 0000:0000  Imp  GLOBALUNLOCK         (KERNEL.19)
 0006:00E2       HHEAPSPACE
 0006:0000       HLIBRARYMODULE
 0006:00A6       HWNDSPOOLER
 0000:0000  Imp  ISDLGBUTTONCHECKED   (USER.98)
 0002:0024       ISRESTOREENABLED
 0002:0000       ISWARNINGENABLED
 0000:0000  Imp  KILLTIMER            (USER.12)
 0001:0000       LIBRARYINIT
 0000:0000  Imp  LOCKSEGMENT          (KERNEL.23)
 0006:001E       LPFNABOUT
 0006:001A       LPFNDEVMODE
 0000:0000  Imp  LSTRCMP              (USER.430)
 0000:0000  Imp  LSTRCMPI             (USER.471)
 0000:0000  Imp  LSTRCPY              (KERNEL.88)
 0000:0000  Imp  LSTRLEN              (KERNEL.90)
 0003:0000       MAPMSDOSERROR
 0000:0000  Imp  MESSAGEBOX           (USER.1)
 0005:0442       MOVENAMESDOWN
 0003:006C       MSNETCANCELASSIGNLISTENTRY
 0003:0213       MSNETCLOSEHANDLE
 0003:01C1       MSNETCREATEHANDLE
 0003:0127       MSNETFINDLOCALNAME
 0003:00C3       MSNETFINDLOCALSESSION
 0003:0091       MSNETGETASSIGNLISTENTRY
 0003:019A       MSNETGETMACHINENAME
 0003:002A       MSNETMAKEASSIGNLISTENTRY
 0000:0000  Imp  NETBIOSCALL          (KERNEL.103)
 0005:01C5       NETGETPRINTQUEUE
 0005:0177       NETNETBIOSRECEIVE
 0005:0129       NETNETBIOSSEND
 0006:00DC       NIDEVENT
 0000:0000  Imp  POSTMESSAGE          (USER.110)
 0002:01CF       POSTWARNING
 0006:0066       QUEUEHANDLETABLE
 0005:05C7       REFORMATBUFFER
 0006:00AA       RGFWATCH
 0000:0000  Imp  SETTIMER             (USER.10)
 0005:03A2       SMBDATETIMETOSECONDS
 0006:0042       SZHELPFILE
 0006:0032       SZNETSECTION
 0006:003A       SZRESTORE
 0006:0022       SZSECTION
 0006:002A       SZTAG
 0001:031A       TimerProc
 0000:0000  Imp  UNLOCKSEGMENT        (KERNEL.24)
 0001:0175       UTLAPPENDTRAILINGCOLON
 0001:02F9       UTLHOURMINUTESECONDTOSECONDS
 0001:0279       UTLISNETWORKPATH
 0001:022A       UTLISSERIALDEVICE
 0001:00CE       UTLMEMMOVE
 0001:013A       UTLREMOVETRAILINGCOLON
 0001:010D       UTLREMOVETRAILINGSPACES
 0001:01DE       UTLSTRICMPCOLON
 0001:01B4       UTLTOUPPER
 0001:02A9       UTLYEARMONTHDAYTOSECONDS
 0006:00DA       WELAPSE
 0001:0047       WEP
 0000:0000  Imp  WINHELP              (USER.171)
 0001:0440       WNETABORTJOB
 0004:0000       WNetAddConnection
 0001:042E       WNetBrowseDialog
 0004:0076       WNetCancelConnection
 0001:0422       WNetCancelJob
 0005:009E       WNetCloseJob
 0001:044E       WNETCONNECTDIALOG
 0001:0460       WNETCONNECTIONDIALOG
 0002:019B       WNetDeviceMode
 0001:0472       WNETDIRECTORYNOTIFY
 0001:044A       WNetDisable
 0001:0454       WNETDISCONNECTDIALOG
 0001:0446       WNetEnable
 0001:004C       WNetGetCaps
 0004:009C       WNetGetConnection
 0001:046C       WNETGETDIRECTORYTYPE
 0001:0434       WNetGetError
 0001:043A       WNetGetErrorText
 0001:0478       WNETGETPROPERTYTEXT
 0001:0076       WNetGetUser
 0001:0416       WNetHoldJob
 0005:0295       WNetLockQueueData
 0005:0000       WNetOpenJob
 0001:045A       WNETPROPERTYDIALOG
 0001:041C       WNetReleaseJob
 0001:047E       WNETRESTORECONNECTION
 0001:0428       WNetSetJobCopies
 0005:0371       WNetUnlockQueueData
 0001:03D4       WNetUnwatchQueue
 0001:0466       WNETVIEWQUEUEDIALOG
 0001:0383       WNetWatchQueue
 0005:00F2       WNETWRITEJOB
 0000:0000  Imp  WRITEPROFILESTRING   (KERNEL.59)

  Address         Publics by Value

 0000:0000  Imp  LSTRCMP              (USER.430)
 0000:0000  Imp  ENDDIALOG            (USER.88)
 0000:0000  Imp  GLOBALUNLOCK         (KERNEL.19)
 0000:0000  Imp  LOCKSEGMENT          (KERNEL.23)
 0000:0000  Imp  WRITEPROFILESTRING   (KERNEL.59)
 0000:0000  Imp  GLOBALALLOC          (KERNEL.15)
 0000:0000  Imp  LSTRCPY              (KERNEL.88)
 0000:0000  Imp  UNLOCKSEGMENT        (KERNEL.24)
 0000:0000  Imp  GETCURRENTTASK       (KERNEL.36)
 0000:0000  Imp  KILLTIMER            (USER.12)
 0000:0000  Imp  ISDLGBUTTONCHECKED   (USER.98)
 0000:0000  Imp  GLOBALLOCK           (KERNEL.18)
 0000:0000  Imp  LSTRLEN              (KERNEL.90)
 0000:0000  Imp  POSTMESSAGE          (USER.110)
 0000:0000  Imp  CHECKDLGBUTTON       (USER.97)
 0000:0000  Imp  SETTIMER             (USER.10)
 0000:0000  Imp  GETDLGITEM           (USER.91)
 0000:0000  Imp  LSTRCMPI             (USER.471)
 0000:0000  Imp  WINHELP              (USER.171)
 0000:0000  Imp  DOS3CALL             (KERNEL.102)
 0000:0000  Imp  NETBIOSCALL          (KERNEL.103)
 0000:0000  Imp  GLOBALFREE           (KERNEL.17)
 0000:0000  Imp  DIALOGBOX            (USER.87)
 0000:0000  Imp  MESSAGEBOX           (USER.1)
 0000:0000  Imp  GETPROFILEINT        (KERNEL.57)
 0001:0000       LIBRARYINIT
 0001:0047       WEP
 0001:004C       WNetGetCaps
 0001:0076       WNetGetUser
 0001:00CE       UTLMEMMOVE
 0001:010D       UTLREMOVETRAILINGSPACES
 0001:013A       UTLREMOVETRAILINGCOLON
 0001:0175       UTLAPPENDTRAILINGCOLON
 0001:01B4       UTLTOUPPER
 0001:01DE       UTLSTRICMPCOLON
 0001:022A       UTLISSERIALDEVICE
 0001:0279       UTLISNETWORKPATH
 0001:02A9       UTLYEARMONTHDAYTOSECONDS
 0001:02F9       UTLHOURMINUTESECONDTOSECONDS
 0001:031A       TimerProc
 0001:0383       WNetWatchQueue
 0001:03D4       WNetUnwatchQueue
 0001:0416       WNetHoldJob
 0001:041C       WNetReleaseJob
 0001:0422       WNetCancelJob
 0001:0428       WNetSetJobCopies
 0001:042E       WNetBrowseDialog
 0001:0434       WNetGetError
 0001:043A       WNetGetErrorText
 0001:0440       WNETABORTJOB
 0001:0446       WNetEnable
 0001:044A       WNetDisable
 0001:044E       WNETCONNECTDIALOG
 0001:0454       WNETDISCONNECTDIALOG
 0001:045A       WNETPROPERTYDIALOG
 0001:0460       WNETCONNECTIONDIALOG
 0001:0466       WNETVIEWQUEUEDIALOG
 0001:046C       WNETGETDIRECTORYTYPE
 0001:0472       WNETDIRECTORYNOTIFY
 0001:0478       WNETGETPROPERTYTEXT
 0001:047E       WNETRESTORECONNECTION
 0002:0000       ISWARNINGENABLED
 0002:0024       ISRESTOREENABLED
 0002:0048       AboutDlgProc
 0002:0079       DeviceModeDialog
 0002:019B       WNetDeviceMode
 0002:01CF       POSTWARNING
 0003:0000       MAPMSDOSERROR
 0003:002A       MSNETMAKEASSIGNLISTENTRY
 0003:006C       MSNETCANCELASSIGNLISTENTRY
 0003:0091       MSNETGETASSIGNLISTENTRY
 0003:00C3       MSNETFINDLOCALSESSION
 0003:0127       MSNETFINDLOCALNAME
 0003:019A       MSNETGETMACHINENAME
 0003:01C1       MSNETCREATEHANDLE
 0003:0213       MSNETCLOSEHANDLE
 0004:0000       WNetAddConnection
 0004:0076       WNetCancelConnection
 0004:009C       WNetGetConnection
 0005:0000       WNetOpenJob
 0005:009E       WNetCloseJob
 0005:00F2       WNETWRITEJOB
 0005:0129       NETNETBIOSSEND
 0005:0177       NETNETBIOSRECEIVE
 0005:01C5       NETGETPRINTQUEUE
 0005:0295       WNetLockQueueData
 0005:0371       WNetUnlockQueueData
 0005:03A2       SMBDATETIMETOSECONDS
 0005:0401       COMPACTENTRY
 0005:0442       MOVENAMESDOWN
 0005:04A5       CONVERTENTRIES
 0005:0599       COMPLETEQUEUESTRUCT
 0005:05C7       REFORMATBUFFER
 0005:061F       GETWHOLEQUEUE
 0006:0000       HLIBRARYMODULE
 0006:001A       LPFNDEVMODE
 0006:001E       LPFNABOUT
 0006:0022       SZSECTION
 0006:002A       SZTAG
 0006:0032       SZNETSECTION
 0006:003A       SZRESTORE
 0006:0042       SZHELPFILE
 0006:004E       CAPSTABLE
 0006:0066       QUEUEHANDLETABLE
 0006:0086       ERRORXTBL
 0006:00A6       HWNDSPOOLER
 0006:00A8       CWATCHES
 0006:00AA       RGFWATCH
 0006:00DA       WELAPSE
 0006:00DC       NIDEVENT
 0006:00E2       HHEAPSPACE

Program entry point at 0001:0000
