
 IBMJOY

 Start     Length     Name                   Class
 0001:0000 00006H     _WEP                   CODE
 0002:0000 00676H     _TEXT                  CODE
 0003:0000 00010H     NULL                   BEGDATA
 0003:0010 00134H     _DATA                  DATA
 0003:0144 00000H     CDATA                  DATA
 0003:0144 00000H     XIFB                   DATA
 0003:0144 00000H     XIF                    DATA
 0003:0144 00000H     XIFE                   DATA
 0003:0144 00000H     XIB                    DATA
 0003:0144 00000H     XI                     DATA
 0003:0144 00000H     XIE                    DATA
 0003:0144 00000H     XPB                    DATA
 0003:0144 00000H     XP                     DATA
 0003:0144 00000H     XPE                    DATA
 0003:0144 00000H     XCB                    DATA
 0003:0144 00000H     XC                     DATA
 0003:0144 00000H     XCE                    DATA
 0003:0144 00000H     XCFB                   DATA
 0003:0144 00000H     XCF                    DATA
 0003:0144 00000H     XCFE                   DATA
 0003:0144 0000CH     DBDATA                 DATA
 0003:0150 00000H     CONST                  CONST
 0003:0150 00019H     HDR                    MSG
 0003:0169 00082H     MSG                    MSG
 0003:01EB 00002H     PAD                    MSG
 0003:01ED 00001H     EPAD                   MSG
 0003:01F0 00010H     _BSS                   BSS
 0003:0200 00000H     XOB                    BSS
 0003:0200 00000H     XO                     BSS
 0003:0200 00000H     XOE                    BSS
 0003:0200 0000EH     c_common               BSS

 Origin   Group
 0003:0   DGROUP

 Address   Export                  Alias

 0002:0560 ConfigDlgProc           ConfigDlgProc
 0002:0198 DriverProc              DriverProc
 0001:0000 WEP                     WEP

  Address         Publics by Name

 0000:0000  Imp  CHECKRADIOBUTTON     (USER.96)
 0002:04E0       CONFIG
 0002:0560       ConfigDlgProc
 0000:0000  Imp  DEFDRIVERPROC        (USER.255)
 0000:0000  Imp  DIALOGBOX            (USER.87)
 0002:0198       DriverProc
 0000:0000  Imp  ENDDIALOG            (USER.88)
 0000:0000  Imp  FREEPROCINSTANCE     (KERNEL.52)
 0000:0000  Imp  GETPRIVATEPROFILEINT (KERNEL.127)
 0000:0000  Imp  GETPROFILEINT        (KERNEL.57)
 0002:014E       IBMJOYGETTIMEOUTVALUE
 0000:0000  Imp  ISDLGBUTTONCHECKED   (USER.98)
 0002:04C0       LibEntry
 0002:0010       LIBMAIN
 0000:0000  Imp  LocalInit            (KERNEL.4)
 0000:0000  Imp  LSTRCPY              (KERNEL.88)
 0000:0000  Imp  MAKEPROCINSTANCE     (KERNEL.51)
 0000:0000  Imp  OUTPUTDEBUGSTR       (MMSYSTEM.30)
 0000:0000  Imp  OUTPUTDEBUGSTRING    (KERNEL.115)
 0000:0008  Abs  pAtomTable
 0000:0006  Abs  pLocalHeap
 0002:037E       POLL
 0000:000E  Abs  pStackBot
 0000:000C  Abs  pStackMin
 0000:000A  Abs  pStackTop
 0003:0004       rsrvptrs
 0003:0140       STKHQQ
 0001:0000       WEP
 0000:0000  Imp  WRITEPRIVATEPROFILESTRING (KERNEL.129)
 0003:01F0       _edata
 0003:020E       _end
 0003:0208       _gdwTimeout
 0002:052E       _GetAxes
 0002:004A       _GetDevCaps
 0002:00D6       _GetPos
 0003:006E       _ghInstance
 0003:0042       _gszAxes
 0003:0050       _gszDevCapsDescription
 0003:002A       _gszDriverName
 0003:0036       _gszIniFile
 0003:0048       _gszTimeout
 0003:0206       _gwButtons
 0003:020C       _gwcAxes
 0003:0028       _gwDebugLevel
 0003:0200       _gwXpos
 0003:0202       _gwYpos
 0003:0204       _gwZpos
 0003:0010       _JoyCal
 0000:0000  Imp  _wsprintf            (USER.420)
 0000:9876  Abs  __acrtmsg
 0000:9876  Abs  __acrtused
 0000:9876  Abs  __acrtused2
 0000:D6D6  Abs  __aDBdoswp
 0003:0142       __adbgmsg
 0003:0148       __aDBrterr
 0003:0158       __caption
 0000:9876  Abs  __fptaskdata
 0002:0624       __NMSG_TEXT
 0002:064F       __NMSG_WRITE
 0002:0621       __wflags
 0000:0000  Imp  __WINFLAGS           (KERNEL.178)
 0003:014A       ___aDBexit
 0003:0146       ___aDBswpchk
 0003:0144       ___aDBswpflg

  Address         Publics by Value

 0000:0000  Imp  GETPROFILEINT        (KERNEL.57)
 0000:0000  Imp  ENDDIALOG            (USER.88)
 0000:0000  Imp  OUTPUTDEBUGSTR       (MMSYSTEM.30)
 0000:0000  Imp  DEFDRIVERPROC        (USER.255)
 0000:0000  Imp  MAKEPROCINSTANCE     (KERNEL.51)
 0000:0000  Imp  CHECKRADIOBUTTON     (USER.96)
 0000:0000  Imp  __WINFLAGS           (KERNEL.178)
 0000:0000  Imp  OUTPUTDEBUGSTRING    (KERNEL.115)
 0000:0000  Imp  GETPRIVATEPROFILEINT (KERNEL.127)
 0000:0000  Imp  LSTRCPY              (KERNEL.88)
 0000:0000  Imp  FREEPROCINSTANCE     (KERNEL.52)
 0000:0000  Imp  DIALOGBOX            (USER.87)
 0000:0000  Imp  ISDLGBUTTONCHECKED   (USER.98)
 0000:0000  Imp  WRITEPRIVATEPROFILESTRING (KERNEL.129)
 0000:0000  Imp  _wsprintf            (USER.420)
 0000:0000  Imp  LocalInit            (KERNEL.4)
 0000:0006  Abs  pLocalHeap
 0000:0008  Abs  pAtomTable
 0000:000A  Abs  pStackTop
 0000:000C  Abs  pStackMin
 0000:000E  Abs  pStackBot
 0000:9876  Abs  __acrtused
 0000:9876  Abs  __fptaskdata
 0000:9876  Abs  __acrtmsg
 0000:9876  Abs  __acrtused2
 0000:D6D6  Abs  __aDBdoswp
 0001:0000       WEP
 0002:0010       LIBMAIN
 0002:004A       _GetDevCaps
 0002:00D6       _GetPos
 0002:014E       IBMJOYGETTIMEOUTVALUE
 0002:0198       DriverProc
 0002:037E       POLL
 0002:04C0       LibEntry
 0002:04E0       CONFIG
 0002:052E       _GetAxes
 0002:0560       ConfigDlgProc
 0002:0621       __wflags
 0002:0624       __NMSG_TEXT
 0002:064F       __NMSG_WRITE
 0003:0004       rsrvptrs
 0003:0010       _JoyCal
 0003:0028       _gwDebugLevel
 0003:002A       _gszDriverName
 0003:0036       _gszIniFile
 0003:0042       _gszAxes
 0003:0048       _gszTimeout
 0003:0050       _gszDevCapsDescription
 0003:006E       _ghInstance
 0003:0140       STKHQQ
 0003:0142       __adbgmsg
 0003:0144       ___aDBswpflg
 0003:0146       ___aDBswpchk
 0003:0148       __aDBrterr
 0003:014A       ___aDBexit
 0003:0158       __caption
 0003:01F0       _edata
 0003:0200       _gwXpos
 0003:0202       _gwYpos
 0003:0204       _gwZpos
 0003:0206       _gwButtons
 0003:0208       _gdwTimeout
 0003:020C       _gwcAxes
 0003:020E       _end

Line numbers for ibmjoy.obj(ibmjoy.c) segment _TEXT

    67 0002:0010    69 0002:0013    71 0002:0025    73 0002:003C
    75 0002:0042    76 0002:0045     0 0002:0049    91 0002:004A
    96 0002:0050    97 0002:0055   103 0002:005A   105 0002:0063
   106 0002:006E   108 0002:007B   109 0002:0080   111 0002:0085
   113 0002:008A   115 0002:0098   116 0002:00A5   117 0002:00B6
   119 0002:00D1   120 0002:00D2     0 0002:00D5   136 0002:00D6
   137 0002:00DD   138 0002:00E2   140 0002:00EA   142 0002:00F6
   143 0002:00FD   147 0002:0102   149 0002:010F   150 0002:0119
   154 0002:011E   155 0002:0128   157 0002:0130   158 0002:013A
   159 0002:0140   161 0002:0147   162 0002:014B     0 0002:014D
   173 0002:014E   177 0002:0159   178 0002:0173   180 0002:0176
   181 0002:0190     0 0002:0197   225 0002:0198   229 0002:01AA
   312 0002:01AC   311 0002:01EE   275 0002:020C   276 0002:0210
   277 0002:0226   278 0002:022B   279 0002:0236   280 0002:024F
   282 0002:0255   283 0002:0258   284 0002:0271   286 0002:0277
   288 0002:027D   289 0002:0280   291 0002:0299   296 0002:02A2
   262 0002:02A4   263 0002:02BB   299 0002:02CA   302 0002:02DA
   303 0002:02ED   307 0002:02FC   308 0002:0311   232 0002:0316
   235 0002:031E   239 0002:0330   245 0002:0340   247 0002:0359
   249 0002:036E   313 0002:0372     0 0002:037D

Line numbers for poll.obj(poll.ASM) segment _TEXT

    93 0002:037E    97 0002:0386    98 0002:0389    99 0002:038A
   100 0002:038C   101 0002:0390   102 0002:0392   104 0002:0395
   105 0002:0397   106 0002:039A   107 0002:039D   122 0002:03A0
   123 0002:03A1   130 0002:03A2   133 0002:03A7   134 0002:03AA
   136 0002:03AD   137 0002:03B0   138 0002:03B4   139 0002:03B6
   140 0002:03BA   142 0002:03BC   143 0002:03BF   146 0002:03C2
   147 0002:03C6   148 0002:03C8   151 0002:03CA   152 0002:03CD
   153 0002:03CF   154 0002:03D0   155 0002:03D3   156 0002:03D7
   157 0002:03DA   158 0002:03DD   161 0002:03E0   162 0002:03E3
   163 0002:03E5   164 0002:03E6   165 0002:03E9   166 0002:03ED
   167 0002:03F0   168 0002:03F3   171 0002:03F6   172 0002:03F8
   173 0002:03FA   174 0002:03FB   175 0002:03FE   177 0002:0402
   178 0002:0405   179 0002:0407   180 0002:0408   181 0002:040B
   183 0002:040F   184 0002:0412   187 0002:0415   188 0002:0418
   189 0002:041C   190 0002:041E   191 0002:0420   197 0002:0421
   198 0002:0423   205 0002:0425   206 0002:0426   207 0002:0428
   210 0002:042A   211 0002:042C   214 0002:042E   215 0002:0432
   217 0002:0437   218 0002:0438   220 0002:0439   221 0002:043C
   222 0002:0440   223 0002:0444   224 0002:0446   225 0002:0448
   226 0002:044C   229 0002:044E   230 0002:044F   233 0002:0450
   234 0002:0452   237 0002:0455   238 0002:0456   241 0002:0457
   242 0002:0459   245 0002:045B   246 0002:045F   248 0002:0464
   249 0002:0465   251 0002:0466   252 0002:0469   253 0002:046D
   254 0002:0471   255 0002:0473   256 0002:0475   257 0002:0479
   260 0002:047B   261 0002:047C   264 0002:047D   265 0002:047F
   268 0002:0482   269 0002:0483   270 0002:0484   273 0002:0486
   274 0002:0489   275 0002:048B   280 0002:048E   281 0002:048F
   282 0002:0493   283 0002:0495   287 0002:0496   288 0002:0498
   289 0002:049C   290 0002:049E   291 0002:04A0   293 0002:04A1
   296 0002:04A5   297 0002:04A7   298 0002:04AB   299 0002:04AD
   300 0002:04AF   302 0002:04B0   305 0002:04B4   306 0002:04B6
   308 0002:04B8   327 0002:04C0   331 0002:04C5   332 0002:04C6
   333 0002:04C7   334 0002:04C8   335 0002:04C9   339 0002:04CA
   341 0002:04CC   344 0002:04D6   348 0002:04D9

Program entry point at 0002:04C0


Line numbers for config.obj(config.c) segment _TEXT

    33 0002:04E0    38 0002:04F2    39 0002:0515    40 0002:0520
    41 0002:0522     0 0002:052D    54 0002:052E    55 0002:0535
    56 0002:0541    57 0002:0547    61 0002:055D     0 0002:055F
    83 0002:0560    87 0002:056E   130 0002:0571   129 0002:0579
    90 0002:057E    93 0002:0590    94 0002:0593   125 0002:0595
    95 0002:05A8    96 0002:05AB    97 0002:05B2   100 0002:05C7
   103 0002:05DD   106 0002:05E2   107 0002:05EB   108 0002:05F3
   109 0002:05F6   114 0002:05FC   120 0002:0602   132 0002:060F
   133 0002:0612     0 0002:061B

Line numbers for wep.obj(wep.ASM) segment _WEP

    87 0001:0000    88 0001:0003